
C:/Users/Dan/Documents/Programming/Pico/mypico/build/lcd_uart/lcd_uart.elf:     file format elf32-littlearm

Sections:
Idx Name          Size      VMA       LMA       File off  Algn
  0 .boot2        00000100  10000000  10000000  00001000  2**0
                  CONTENTS, ALLOC, LOAD, READONLY, CODE
  1 .text         00002550  10000100  10000100  00001100  2**3
                  CONTENTS, ALLOC, LOAD, READONLY, CODE
  2 .rodata       000000dc  10002650  10002650  00003650  2**2
                  CONTENTS, ALLOC, LOAD, READONLY, DATA
  3 .binary_info  0000001c  1000272c  1000272c  0000372c  2**2
                  CONTENTS, ALLOC, LOAD, DATA
  4 .ram_vector_table 000000c0  20000000  20000000  00004370  2**2
                  CONTENTS
  5 .data         000002b0  200000c0  10002748  000040c0  2**4
                  CONTENTS, ALLOC, LOAD, CODE
  6 .uninitialized_data 00000000  20000370  20000370  00004430  2**0
                  CONTENTS
  7 .scratch_x    00000000  20040000  20040000  00004430  2**0
                  CONTENTS
  8 .scratch_y    00000000  20041000  20041000  00004430  2**0
                  CONTENTS
  9 .bss          000004dc  20000370  20000370  00004370  2**3
                  ALLOC
 10 .heap         00000800  2000084c  2000084c  00004430  2**2
                  CONTENTS, READONLY
 11 .stack_dummy  00000800  20041000  20041000  00004c40  2**5
                  CONTENTS, READONLY
 12 .ARM.attributes 00000028  00000000  00000000  00005440  2**0
                  CONTENTS, READONLY
 13 .comment      00000049  00000000  00000000  00005468  2**0
                  CONTENTS, READONLY
 14 .debug_frame  00000028  00000000  00000000  000054b4  2**2
                  CONTENTS, READONLY, DEBUGGING, OCTETS

C:/Users/Dan/Documents/Programming/Pico/mypico/build/lcd_uart/lcd_uart.elf:     file format elf32-littlearm


Disassembly of section .boot2:

10000000 <__boot2_start__>:
10000000:	4b32b500 	.word	0x4b32b500
10000004:	60582021 	.word	0x60582021
10000008:	21026898 	.word	0x21026898
1000000c:	60984388 	.word	0x60984388
10000010:	611860d8 	.word	0x611860d8
10000014:	4b2e6158 	.word	0x4b2e6158
10000018:	60992100 	.word	0x60992100
1000001c:	61592102 	.word	0x61592102
10000020:	22f02101 	.word	0x22f02101
10000024:	492b5099 	.word	0x492b5099
10000028:	21016019 	.word	0x21016019
1000002c:	20356099 	.word	0x20356099
10000030:	f844f000 	.word	0xf844f000
10000034:	42902202 	.word	0x42902202
10000038:	2106d014 	.word	0x2106d014
1000003c:	f0006619 	.word	0xf0006619
10000040:	6e19f834 	.word	0x6e19f834
10000044:	66192101 	.word	0x66192101
10000048:	66182000 	.word	0x66182000
1000004c:	f000661a 	.word	0xf000661a
10000050:	6e19f82c 	.word	0x6e19f82c
10000054:	6e196e19 	.word	0x6e196e19
10000058:	f0002005 	.word	0xf0002005
1000005c:	2101f82f 	.word	0x2101f82f
10000060:	d1f94208 	.word	0xd1f94208
10000064:	60992100 	.word	0x60992100
10000068:	6019491b 	.word	0x6019491b
1000006c:	60592100 	.word	0x60592100
10000070:	481b491a 	.word	0x481b491a
10000074:	21016001 	.word	0x21016001
10000078:	21eb6099 	.word	0x21eb6099
1000007c:	21a06619 	.word	0x21a06619
10000080:	f0006619 	.word	0xf0006619
10000084:	2100f812 	.word	0x2100f812
10000088:	49166099 	.word	0x49166099
1000008c:	60014814 	.word	0x60014814
10000090:	60992101 	.word	0x60992101
10000094:	2800bc01 	.word	0x2800bc01
10000098:	4700d000 	.word	0x4700d000
1000009c:	49134812 	.word	0x49134812
100000a0:	c8036008 	.word	0xc8036008
100000a4:	8808f380 	.word	0x8808f380
100000a8:	b5034708 	.word	0xb5034708
100000ac:	20046a99 	.word	0x20046a99
100000b0:	d0fb4201 	.word	0xd0fb4201
100000b4:	42012001 	.word	0x42012001
100000b8:	bd03d1f8 	.word	0xbd03d1f8
100000bc:	6618b502 	.word	0x6618b502
100000c0:	f7ff6618 	.word	0xf7ff6618
100000c4:	6e18fff2 	.word	0x6e18fff2
100000c8:	bd026e18 	.word	0xbd026e18
100000cc:	40020000 	.word	0x40020000
100000d0:	18000000 	.word	0x18000000
100000d4:	00070000 	.word	0x00070000
100000d8:	005f0300 	.word	0x005f0300
100000dc:	00002221 	.word	0x00002221
100000e0:	180000f4 	.word	0x180000f4
100000e4:	a0002022 	.word	0xa0002022
100000e8:	10000100 	.word	0x10000100
100000ec:	e000ed08 	.word	0xe000ed08
	...
100000fc:	7a4eb274 	.word	0x7a4eb274

Disassembly of section .text:

10000100 <__VECTOR_TABLE>:
10000100:	20042000 	.word	0x20042000
10000104:	100001f7 	.word	0x100001f7
10000108:	100001c3 	.word	0x100001c3
1000010c:	100001c5 	.word	0x100001c5
10000110:	100001c1 	.word	0x100001c1
10000114:	100001c1 	.word	0x100001c1
10000118:	100001c1 	.word	0x100001c1
1000011c:	100001c1 	.word	0x100001c1
10000120:	100001c1 	.word	0x100001c1
10000124:	100001c1 	.word	0x100001c1
10000128:	100001c1 	.word	0x100001c1
1000012c:	100001c7 	.word	0x100001c7
10000130:	100001c1 	.word	0x100001c1
10000134:	100001c1 	.word	0x100001c1
10000138:	100001c9 	.word	0x100001c9
1000013c:	100001cb 	.word	0x100001cb
10000140:	100001cd 	.word	0x100001cd
10000144:	100001cd 	.word	0x100001cd
10000148:	100001cd 	.word	0x100001cd
1000014c:	100001cd 	.word	0x100001cd
10000150:	100001cd 	.word	0x100001cd
10000154:	100001cd 	.word	0x100001cd
10000158:	100001cd 	.word	0x100001cd
1000015c:	100001cd 	.word	0x100001cd
10000160:	100001cd 	.word	0x100001cd
10000164:	100001cd 	.word	0x100001cd
10000168:	100001cd 	.word	0x100001cd
1000016c:	100001cd 	.word	0x100001cd
10000170:	100001cd 	.word	0x100001cd
10000174:	100001cd 	.word	0x100001cd
10000178:	100001cd 	.word	0x100001cd
1000017c:	100001cd 	.word	0x100001cd
10000180:	100001cd 	.word	0x100001cd
10000184:	100001cd 	.word	0x100001cd
10000188:	100001cd 	.word	0x100001cd
1000018c:	100001cd 	.word	0x100001cd
10000190:	100001cd 	.word	0x100001cd
10000194:	100001cd 	.word	0x100001cd
10000198:	100001cd 	.word	0x100001cd
1000019c:	100001cd 	.word	0x100001cd
100001a0:	100001cd 	.word	0x100001cd
100001a4:	100001cd 	.word	0x100001cd
100001a8:	100001cd 	.word	0x100001cd
100001ac:	100001cd 	.word	0x100001cd
100001b0:	100001cd 	.word	0x100001cd
100001b4:	100001cd 	.word	0x100001cd
100001b8:	100001cd 	.word	0x100001cd
100001bc:	100001cd 	.word	0x100001cd

100001c0 <isr_invalid>:
100001c0:	be00      	bkpt	0x0000

100001c2 <isr_nmi>:
100001c2:	be00      	bkpt	0x0000

100001c4 <isr_hardfault>:
100001c4:	be00      	bkpt	0x0000

100001c6 <isr_svcall>:
100001c6:	be00      	bkpt	0x0000

100001c8 <isr_pendsv>:
100001c8:	be00      	bkpt	0x0000

100001ca <isr_systick>:
100001ca:	be00      	bkpt	0x0000

100001cc <__unhandled_user_irq>:
100001cc:	f000 f84b 	bl	10000266 <__get_current_exception>
100001d0:	3810      	subs	r0, #16

100001d2 <unhandled_user_irq_num_in_r0>:
100001d2:	be00      	bkpt	0x0000

100001d4 <binary_info_header>:
100001d4:	7188ebf2 	.word	0x7188ebf2
100001d8:	1000272c 	.word	0x1000272c
100001dc:	10002748 	.word	0x10002748
100001e0:	10000234 	.word	0x10000234
100001e4:	e71aa390 	.word	0xe71aa390

100001e8 <_entry_point>:
100001e8:	2000      	movs	r0, #0
100001ea:	4921      	ldr	r1, [pc, #132]	; (10000270 <__get_current_exception+0xa>)
100001ec:	6008      	str	r0, [r1, #0]
100001ee:	c806      	ldmia	r0!, {r1, r2}
100001f0:	f381 8808 	msr	MSP, r1
100001f4:	4710      	bx	r2

100001f6 <_reset_handler>:
100001f6:	481f      	ldr	r0, [pc, #124]	; (10000274 <__get_current_exception+0xe>)
100001f8:	6800      	ldr	r0, [r0, #0]
100001fa:	2800      	cmp	r0, #0
100001fc:	d12f      	bne.n	1000025e <hold_non_core0_in_bootrom>
100001fe:	a40d      	add	r4, pc, #52	; (adr r4, 10000234 <data_cpy_table>)
10000200:	cc0e      	ldmia	r4!, {r1, r2, r3}
10000202:	2900      	cmp	r1, #0
10000204:	d002      	beq.n	1000020c <_reset_handler+0x16>
10000206:	f000 f812 	bl	1000022e <data_cpy>
1000020a:	e7f9      	b.n	10000200 <_reset_handler+0xa>
1000020c:	491a      	ldr	r1, [pc, #104]	; (10000278 <__get_current_exception+0x12>)
1000020e:	4a1b      	ldr	r2, [pc, #108]	; (1000027c <__get_current_exception+0x16>)
10000210:	2000      	movs	r0, #0
10000212:	e000      	b.n	10000216 <bss_fill_test>

10000214 <bss_fill_loop>:
10000214:	c101      	stmia	r1!, {r0}

10000216 <bss_fill_test>:
10000216:	4291      	cmp	r1, r2
10000218:	d1fc      	bne.n	10000214 <bss_fill_loop>

1000021a <platform_entry>:
1000021a:	4919      	ldr	r1, [pc, #100]	; (10000280 <__get_current_exception+0x1a>)
1000021c:	4788      	blx	r1
1000021e:	4919      	ldr	r1, [pc, #100]	; (10000284 <__get_current_exception+0x1e>)
10000220:	4788      	blx	r1
10000222:	4919      	ldr	r1, [pc, #100]	; (10000288 <__get_current_exception+0x22>)
10000224:	4788      	blx	r1
10000226:	be00      	bkpt	0x0000
10000228:	e7fd      	b.n	10000226 <platform_entry+0xc>

1000022a <data_cpy_loop>:
1000022a:	c901      	ldmia	r1!, {r0}
1000022c:	c201      	stmia	r2!, {r0}

1000022e <data_cpy>:
1000022e:	429a      	cmp	r2, r3
10000230:	d3fb      	bcc.n	1000022a <data_cpy_loop>
10000232:	4770      	bx	lr

10000234 <data_cpy_table>:
10000234:	10002748 	.word	0x10002748
10000238:	200000c0 	.word	0x200000c0
1000023c:	20000370 	.word	0x20000370
10000240:	100029f8 	.word	0x100029f8
10000244:	20040000 	.word	0x20040000
10000248:	20040000 	.word	0x20040000
1000024c:	100029f8 	.word	0x100029f8
10000250:	20041000 	.word	0x20041000
10000254:	20041000 	.word	0x20041000
10000258:	00000000 	.word	0x00000000
1000025c:	4770      	bx	lr

1000025e <hold_non_core0_in_bootrom>:
1000025e:	480b      	ldr	r0, [pc, #44]	; (1000028c <__get_current_exception+0x26>)
10000260:	f001 fdb8 	bl	10001dd4 <rom_func_lookup>
10000264:	4700      	bx	r0

10000266 <__get_current_exception>:
10000266:	f3ef 8005 	mrs	r0, IPSR
1000026a:	b2c0      	uxtb	r0, r0
1000026c:	4770      	bx	lr
1000026e:	0000      	.short	0x0000
10000270:	e000ed08 	.word	0xe000ed08
10000274:	d0000000 	.word	0xd0000000
10000278:	20000370 	.word	0x20000370
1000027c:	2000084c 	.word	0x2000084c
10000280:	10001599 	.word	0x10001599
10000284:	100005dd 	.word	0x100005dd
10000288:	10001689 	.word	0x10001689
1000028c:	00005657 	.word	0x00005657

10000290 <__bi_50>:
10000290:	50520006 5360b3ab 100026c8              ..RP..`S.&..

1000029c <__bi_38>:
1000029c:	50520006 02031c86 100026d8              ..RP.....&..

100002a8 <__bi_30>:
100002a8:	50520006 9da22254 100026e4              ..RPT"...&..

100002b4 <__bi_22>:
100002b4:	50520005 68f465de 100029f8              ..RP.e.h.)..

100002c0 <_init>:
100002c0:	b5f8      	push	{r3, r4, r5, r6, r7, lr}
100002c2:	46c0      	nop			; (mov r8, r8)

100002c4 <__do_global_dtors_aux>:
100002c4:	b510      	push	{r4, lr}
100002c6:	4c06      	ldr	r4, [pc, #24]	; (100002e0 <__do_global_dtors_aux+0x1c>)
100002c8:	7823      	ldrb	r3, [r4, #0]
100002ca:	2b00      	cmp	r3, #0
100002cc:	d107      	bne.n	100002de <__do_global_dtors_aux+0x1a>
100002ce:	4b05      	ldr	r3, [pc, #20]	; (100002e4 <__do_global_dtors_aux+0x20>)
100002d0:	2b00      	cmp	r3, #0
100002d2:	d002      	beq.n	100002da <__do_global_dtors_aux+0x16>
100002d4:	4804      	ldr	r0, [pc, #16]	; (100002e8 <__do_global_dtors_aux+0x24>)
100002d6:	e000      	b.n	100002da <__do_global_dtors_aux+0x16>
100002d8:	bf00      	nop
100002da:	2301      	movs	r3, #1
100002dc:	7023      	strb	r3, [r4, #0]
100002de:	bd10      	pop	{r4, pc}
100002e0:	20000670 	.word	0x20000670
100002e4:	00000000 	.word	0x00000000
100002e8:	10002650 	.word	0x10002650

100002ec <frame_dummy>:
100002ec:	4b04      	ldr	r3, [pc, #16]	; (10000300 <frame_dummy+0x14>)
100002ee:	b510      	push	{r4, lr}
100002f0:	2b00      	cmp	r3, #0
100002f2:	d003      	beq.n	100002fc <frame_dummy+0x10>
100002f4:	4903      	ldr	r1, [pc, #12]	; (10000304 <frame_dummy+0x18>)
100002f6:	4804      	ldr	r0, [pc, #16]	; (10000308 <frame_dummy+0x1c>)
100002f8:	e000      	b.n	100002fc <frame_dummy+0x10>
100002fa:	bf00      	nop
100002fc:	bd10      	pop	{r4, pc}
100002fe:	46c0      	nop			; (mov r8, r8)
10000300:	00000000 	.word	0x00000000
10000304:	20000674 	.word	0x20000674
10000308:	10002650 	.word	0x10002650

1000030c <lcd_init_alarm>:
1000030c:	2300      	movs	r3, #0
1000030e:	2000      	movs	r0, #0
10000310:	740b      	strb	r3, [r1, #16]
10000312:	2100      	movs	r1, #0
10000314:	4770      	bx	lr
10000316:	46c0      	nop			; (mov r8, r8)

10000318 <lcd_init>:
10000318:	b5f0      	push	{r4, r5, r6, r7, lr}
1000031a:	46de      	mov	lr, fp
1000031c:	4657      	mov	r7, sl
1000031e:	464e      	mov	r6, r9
10000320:	4645      	mov	r5, r8
10000322:	b5e0      	push	{r5, r6, r7, lr}
10000324:	000e      	movs	r6, r1
10000326:	b08b      	sub	sp, #44	; 0x2c
10000328:	494d      	ldr	r1, [pc, #308]	; (10000460 <lcd_init+0x148>)
1000032a:	0005      	movs	r5, r0
1000032c:	0030      	movs	r0, r6
1000032e:	4698      	mov	r8, r3
10000330:	4691      	mov	r9, r2
10000332:	f002 f845 	bl	100023c0 <pio_add_program>
10000336:	4b4b      	ldr	r3, [pc, #300]	; (10000464 <lcd_init+0x14c>)
10000338:	4682      	mov	sl, r0
1000033a:	18f1      	adds	r1, r6, r3
1000033c:	1e4b      	subs	r3, r1, #1
1000033e:	4199      	sbcs	r1, r3
10000340:	4640      	mov	r0, r8
10000342:	3106      	adds	r1, #6
10000344:	f000 f99e 	bl	10000684 <gpio_set_function>
10000348:	2301      	movs	r3, #1
1000034a:	4649      	mov	r1, r9
1000034c:	4642      	mov	r2, r8
1000034e:	0030      	movs	r0, r6
10000350:	9300      	str	r3, [sp, #0]
10000352:	f002 f899 	bl	10002488 <pio_sm_set_consecutive_pindirs>
10000356:	2380      	movs	r3, #128	; 0x80
10000358:	025b      	lsls	r3, r3, #9
1000035a:	9304      	str	r3, [sp, #16]
1000035c:	4653      	mov	r3, sl
1000035e:	4652      	mov	r2, sl
10000360:	3305      	adds	r3, #5
10000362:	01d2      	lsls	r2, r2, #7
10000364:	031b      	lsls	r3, r3, #12
10000366:	4313      	orrs	r3, r2
10000368:	4a3f      	ldr	r2, [pc, #252]	; (10000468 <lcd_init+0x150>)
1000036a:	ac04      	add	r4, sp, #16
1000036c:	4013      	ands	r3, r2
1000036e:	2280      	movs	r2, #128	; 0x80
10000370:	05d2      	lsls	r2, r2, #23
10000372:	4313      	orrs	r3, r2
10000374:	6063      	str	r3, [r4, #4]
10000376:	4643      	mov	r3, r8
10000378:	4a3c      	ldr	r2, [pc, #240]	; (1000046c <lcd_init+0x154>)
1000037a:	029b      	lsls	r3, r3, #10
1000037c:	4013      	ands	r3, r2
1000037e:	4642      	mov	r2, r8
10000380:	4313      	orrs	r3, r2
10000382:	4a3b      	ldr	r2, [pc, #236]	; (10000470 <lcd_init+0x158>)
10000384:	2005      	movs	r0, #5
10000386:	4313      	orrs	r3, r2
10000388:	60e3      	str	r3, [r4, #12]
1000038a:	4b3a      	ldr	r3, [pc, #232]	; (10000474 <lcd_init+0x15c>)
1000038c:	60a3      	str	r3, [r4, #8]
1000038e:	f001 faf9 	bl	10001984 <clock_get_hz>
10000392:	f001 fe15 	bl	10001fc0 <__wrap___aeabi_ui2f>
10000396:	2182      	movs	r1, #130	; 0x82
10000398:	1c07      	adds	r7, r0, #0
1000039a:	05c9      	lsls	r1, r1, #23
1000039c:	9814      	ldr	r0, [sp, #80]	; 0x50
1000039e:	f001 fe08 	bl	10001fb2 <__wrap___aeabi_fmul>
100003a2:	1c01      	adds	r1, r0, #0
100003a4:	1c38      	adds	r0, r7, #0
100003a6:	f001 fdf0 	bl	10001f8a <__wrap___aeabi_fdiv>
100003aa:	4683      	mov	fp, r0
100003ac:	f001 fe30 	bl	10002010 <__wrap___aeabi_f2uiz>
100003b0:	b287      	uxth	r7, r0
100003b2:	2000      	movs	r0, #0
100003b4:	2f00      	cmp	r7, #0
100003b6:	d00e      	beq.n	100003d6 <lcd_init+0xbe>
100003b8:	0038      	movs	r0, r7
100003ba:	f001 fe01 	bl	10001fc0 <__wrap___aeabi_ui2f>
100003be:	1c01      	adds	r1, r0, #0
100003c0:	4658      	mov	r0, fp
100003c2:	f001 fddc 	bl	10001f7e <__wrap___aeabi_fsub>
100003c6:	2187      	movs	r1, #135	; 0x87
100003c8:	05c9      	lsls	r1, r1, #23
100003ca:	f001 fdf2 	bl	10001fb2 <__wrap___aeabi_fmul>
100003ce:	f001 fe1f 	bl	10002010 <__wrap___aeabi_f2uiz>
100003d2:	b2c0      	uxtb	r0, r0
100003d4:	0200      	lsls	r0, r0, #8
100003d6:	043f      	lsls	r7, r7, #16
100003d8:	4307      	orrs	r7, r0
100003da:	9704      	str	r7, [sp, #16]
100003dc:	2701      	movs	r7, #1
100003de:	0030      	movs	r0, r6
100003e0:	0023      	movs	r3, r4
100003e2:	4652      	mov	r2, sl
100003e4:	4649      	mov	r1, r9
100003e6:	f002 f891 	bl	1000250c <pio_sm_init>
100003ea:	4649      	mov	r1, r9
100003ec:	003b      	movs	r3, r7
100003ee:	408b      	lsls	r3, r1
100003f0:	6832      	ldr	r2, [r6, #0]
100003f2:	4821      	ldr	r0, [pc, #132]	; (10000478 <lcd_init+0x160>)
100003f4:	4313      	orrs	r3, r2
100003f6:	6033      	str	r3, [r6, #0]
100003f8:	f000 fd66 	bl	10000ec8 <sleep_ms>
100003fc:	464b      	mov	r3, r9
100003fe:	9604      	str	r6, [sp, #16]
10000400:	6063      	str	r3, [r4, #4]
10000402:	4643      	mov	r3, r8
10000404:	60a3      	str	r3, [r4, #8]
10000406:	9b14      	ldr	r3, [sp, #80]	; 0x50
10000408:	7427      	strb	r7, [r4, #16]
1000040a:	60e3      	str	r3, [r4, #12]
1000040c:	f000 fc20 	bl	10000c50 <alarm_pool_get_default>
10000410:	4680      	mov	r8, r0
10000412:	f000 fddd 	bl	10000fd0 <time_us_64>
10000416:	2300      	movs	r3, #0
10000418:	0006      	movs	r6, r0
1000041a:	000f      	movs	r7, r1
1000041c:	4a17      	ldr	r2, [pc, #92]	; (1000047c <lcd_init+0x164>)
1000041e:	1992      	adds	r2, r2, r6
10000420:	417b      	adcs	r3, r7
10000422:	4299      	cmp	r1, r3
10000424:	d818      	bhi.n	10000458 <lcd_init+0x140>
10000426:	d015      	beq.n	10000454 <lcd_init+0x13c>
10000428:	2101      	movs	r1, #1
1000042a:	9102      	str	r1, [sp, #8]
1000042c:	4914      	ldr	r1, [pc, #80]	; (10000480 <lcd_init+0x168>)
1000042e:	9401      	str	r4, [sp, #4]
10000430:	9100      	str	r1, [sp, #0]
10000432:	4640      	mov	r0, r8
10000434:	f000 fc10 	bl	10000c58 <alarm_pool_add_alarm_at>
10000438:	002b      	movs	r3, r5
1000043a:	6160      	str	r0, [r4, #20]
1000043c:	cc07      	ldmia	r4!, {r0, r1, r2}
1000043e:	c307      	stmia	r3!, {r0, r1, r2}
10000440:	cc07      	ldmia	r4!, {r0, r1, r2}
10000442:	c307      	stmia	r3!, {r0, r1, r2}
10000444:	0028      	movs	r0, r5
10000446:	b00b      	add	sp, #44	; 0x2c
10000448:	bcf0      	pop	{r4, r5, r6, r7}
1000044a:	46bb      	mov	fp, r7
1000044c:	46b2      	mov	sl, r6
1000044e:	46a9      	mov	r9, r5
10000450:	46a0      	mov	r8, r4
10000452:	bdf0      	pop	{r4, r5, r6, r7, pc}
10000454:	4290      	cmp	r0, r2
10000456:	d9e7      	bls.n	10000428 <lcd_init+0x110>
10000458:	2201      	movs	r2, #1
1000045a:	4252      	negs	r2, r2
1000045c:	17d3      	asrs	r3, r2, #31
1000045e:	e7e3      	b.n	10000428 <lcd_init+0x110>
10000460:	10002658 	.word	0x10002658
10000464:	afe00000 	.word	0xafe00000
10000468:	9fffffff 	.word	0x9fffffff
1000046c:	fc0fffe0 	.word	0xfc0fffe0
10000470:	40100000 	.word	0x40100000
10000474:	500c0000 	.word	0x500c0000
10000478:	00000352 	.word	0x00000352
1000047c:	000cf850 	.word	0x000cf850
10000480:	1000030d 	.word	0x1000030d

10000484 <lcd_clear_display_blocking>:
10000484:	b084      	sub	sp, #16
10000486:	b510      	push	{r4, lr}
10000488:	9305      	str	r3, [sp, #20]
1000048a:	9002      	str	r0, [sp, #8]
1000048c:	9103      	str	r1, [sp, #12]
1000048e:	9204      	str	r2, [sp, #16]
10000490:	ab02      	add	r3, sp, #8
10000492:	7c1b      	ldrb	r3, [r3, #16]
10000494:	2b00      	cmp	r3, #0
10000496:	d116      	bne.n	100004c6 <lcd_clear_display_blocking+0x42>
10000498:	0002      	movs	r2, r0
1000049a:	3301      	adds	r3, #1
1000049c:	0008      	movs	r0, r1
1000049e:	3110      	adds	r1, #16
100004a0:	408b      	lsls	r3, r1
100004a2:	6851      	ldr	r1, [r2, #4]
100004a4:	420b      	tst	r3, r1
100004a6:	d1fc      	bne.n	100004a2 <lcd_clear_display_blocking+0x1e>
100004a8:	2101      	movs	r1, #1
100004aa:	0080      	lsls	r0, r0, #2
100004ac:	1810      	adds	r0, r2, r0
100004ae:	6101      	str	r1, [r0, #16]
100004b0:	6851      	ldr	r1, [r2, #4]
100004b2:	4219      	tst	r1, r3
100004b4:	d1fc      	bne.n	100004b0 <lcd_clear_display_blocking+0x2c>
100004b6:	2302      	movs	r3, #2
100004b8:	425b      	negs	r3, r3
100004ba:	6103      	str	r3, [r0, #16]
100004bc:	20cd      	movs	r0, #205	; 0xcd
100004be:	2100      	movs	r1, #0
100004c0:	00c0      	lsls	r0, r0, #3
100004c2:	f000 fce9 	bl	10000e98 <sleep_us>
100004c6:	bc10      	pop	{r4}
100004c8:	bc08      	pop	{r3}
100004ca:	b004      	add	sp, #16
100004cc:	4718      	bx	r3
100004ce:	46c0      	nop			; (mov r8, r8)

100004d0 <lcd_set_cursor_style_blocking>:
100004d0:	b084      	sub	sp, #16
100004d2:	b510      	push	{r4, lr}
100004d4:	9204      	str	r2, [sp, #16]
100004d6:	aa09      	add	r2, sp, #36	; 0x24
100004d8:	9103      	str	r1, [sp, #12]
100004da:	9305      	str	r3, [sp, #20]
100004dc:	7811      	ldrb	r1, [r2, #0]
100004de:	9002      	str	r0, [sp, #8]
100004e0:	aa02      	add	r2, sp, #8
100004e2:	7c12      	ldrb	r2, [r2, #16]
100004e4:	ab08      	add	r3, sp, #32
100004e6:	781b      	ldrb	r3, [r3, #0]
100004e8:	2a00      	cmp	r2, #0
100004ea:	d118      	bne.n	1000051e <lcd_set_cursor_style_blocking+0x4e>
100004ec:	9c03      	ldr	r4, [sp, #12]
100004ee:	005b      	lsls	r3, r3, #1
100004f0:	330c      	adds	r3, #12
100004f2:	1858      	adds	r0, r3, r1
100004f4:	0021      	movs	r1, r4
100004f6:	2301      	movs	r3, #1
100004f8:	3110      	adds	r1, #16
100004fa:	408b      	lsls	r3, r1
100004fc:	9a02      	ldr	r2, [sp, #8]
100004fe:	6851      	ldr	r1, [r2, #4]
10000500:	420b      	tst	r3, r1
10000502:	d1fc      	bne.n	100004fe <lcd_set_cursor_style_blocking+0x2e>
10000504:	2101      	movs	r1, #1
10000506:	43c0      	mvns	r0, r0
10000508:	00a4      	lsls	r4, r4, #2
1000050a:	1914      	adds	r4, r2, r4
1000050c:	6121      	str	r1, [r4, #16]
1000050e:	6851      	ldr	r1, [r2, #4]
10000510:	4219      	tst	r1, r3
10000512:	d1fc      	bne.n	1000050e <lcd_set_cursor_style_blocking+0x3e>
10000514:	6120      	str	r0, [r4, #16]
10000516:	2100      	movs	r1, #0
10000518:	2028      	movs	r0, #40	; 0x28
1000051a:	f000 fcbd 	bl	10000e98 <sleep_us>
1000051e:	bc10      	pop	{r4}
10000520:	bc08      	pop	{r3}
10000522:	b004      	add	sp, #16
10000524:	4718      	bx	r3
10000526:	46c0      	nop			; (mov r8, r8)

10000528 <lcd_set_cursor_pos_blocking>:
10000528:	b084      	sub	sp, #16
1000052a:	b510      	push	{r4, lr}
1000052c:	9305      	str	r3, [sp, #20]
1000052e:	9002      	str	r0, [sp, #8]
10000530:	9103      	str	r1, [sp, #12]
10000532:	9204      	str	r2, [sp, #16]
10000534:	ab02      	add	r3, sp, #8
10000536:	7c1b      	ldrb	r3, [r3, #16]
10000538:	2b00      	cmp	r3, #0
1000053a:	d119      	bne.n	10000570 <lcd_set_cursor_pos_blocking+0x48>
1000053c:	9b08      	ldr	r3, [sp, #32]
1000053e:	0002      	movs	r2, r0
10000540:	011c      	lsls	r4, r3, #4
10000542:	9b09      	ldr	r3, [sp, #36]	; 0x24
10000544:	0008      	movs	r0, r1
10000546:	3380      	adds	r3, #128	; 0x80
10000548:	18e4      	adds	r4, r4, r3
1000054a:	2301      	movs	r3, #1
1000054c:	3110      	adds	r1, #16
1000054e:	408b      	lsls	r3, r1
10000550:	6851      	ldr	r1, [r2, #4]
10000552:	420b      	tst	r3, r1
10000554:	d1fc      	bne.n	10000550 <lcd_set_cursor_pos_blocking+0x28>
10000556:	2101      	movs	r1, #1
10000558:	43e4      	mvns	r4, r4
1000055a:	0080      	lsls	r0, r0, #2
1000055c:	1810      	adds	r0, r2, r0
1000055e:	6101      	str	r1, [r0, #16]
10000560:	6851      	ldr	r1, [r2, #4]
10000562:	4219      	tst	r1, r3
10000564:	d1fc      	bne.n	10000560 <lcd_set_cursor_pos_blocking+0x38>
10000566:	6104      	str	r4, [r0, #16]
10000568:	2100      	movs	r1, #0
1000056a:	2028      	movs	r0, #40	; 0x28
1000056c:	f000 fc94 	bl	10000e98 <sleep_us>
10000570:	bc10      	pop	{r4}
10000572:	bc08      	pop	{r3}
10000574:	b004      	add	sp, #16
10000576:	4718      	bx	r3

10000578 <lcd_send_message_blocking>:
10000578:	b084      	sub	sp, #16
1000057a:	b5f0      	push	{r4, r5, r6, r7, lr}
1000057c:	46c6      	mov	lr, r8
1000057e:	b500      	push	{lr}
10000580:	9309      	str	r3, [sp, #36]	; 0x24
10000582:	9006      	str	r0, [sp, #24]
10000584:	9107      	str	r1, [sp, #28]
10000586:	9208      	str	r2, [sp, #32]
10000588:	ab06      	add	r3, sp, #24
1000058a:	7c1b      	ldrb	r3, [r3, #16]
1000058c:	2b00      	cmp	r3, #0
1000058e:	d11f      	bne.n	100005d0 <lcd_send_message_blocking+0x58>
10000590:	9b0d      	ldr	r3, [sp, #52]	; 0x34
10000592:	2b00      	cmp	r3, #0
10000594:	d018      	beq.n	100005c8 <lcd_send_message_blocking+0x50>
10000596:	9b07      	ldr	r3, [sp, #28]
10000598:	2501      	movs	r5, #1
1000059a:	001a      	movs	r2, r3
1000059c:	3210      	adds	r2, #16
1000059e:	4095      	lsls	r5, r2
100005a0:	9a0d      	ldr	r2, [sp, #52]	; 0x34
100005a2:	9e0c      	ldr	r6, [sp, #48]	; 0x30
100005a4:	4690      	mov	r8, r2
100005a6:	3304      	adds	r3, #4
100005a8:	9c06      	ldr	r4, [sp, #24]
100005aa:	44b0      	add	r8, r6
100005ac:	009f      	lsls	r7, r3, #2
100005ae:	7832      	ldrb	r2, [r6, #0]
100005b0:	43d2      	mvns	r2, r2
100005b2:	6863      	ldr	r3, [r4, #4]
100005b4:	421d      	tst	r5, r3
100005b6:	d1fc      	bne.n	100005b2 <lcd_send_message_blocking+0x3a>
100005b8:	2028      	movs	r0, #40	; 0x28
100005ba:	2100      	movs	r1, #0
100005bc:	513a      	str	r2, [r7, r4]
100005be:	3601      	adds	r6, #1
100005c0:	f000 fc6a 	bl	10000e98 <sleep_us>
100005c4:	45b0      	cmp	r8, r6
100005c6:	d1f2      	bne.n	100005ae <lcd_send_message_blocking+0x36>
100005c8:	2028      	movs	r0, #40	; 0x28
100005ca:	2100      	movs	r1, #0
100005cc:	f000 fc64 	bl	10000e98 <sleep_us>
100005d0:	bc80      	pop	{r7}
100005d2:	46b8      	mov	r8, r7
100005d4:	bcf0      	pop	{r4, r5, r6, r7}
100005d6:	bc08      	pop	{r3}
100005d8:	b004      	add	sp, #16
100005da:	4718      	bx	r3

100005dc <main>:
100005dc:	b530      	push	{r4, r5, lr}
100005de:	24d0      	movs	r4, #208	; 0xd0
100005e0:	2580      	movs	r5, #128	; 0x80
100005e2:	b08b      	sub	sp, #44	; 0x2c
100005e4:	2019      	movs	r0, #25
100005e6:	f000 f865 	bl	100006b4 <gpio_init>
100005ea:	4b23      	ldr	r3, [pc, #140]	; (10000678 <main+0x9c>)
100005ec:	0624      	lsls	r4, r4, #24
100005ee:	04ad      	lsls	r5, r5, #18
100005f0:	4922      	ldr	r1, [pc, #136]	; (1000067c <main+0xa0>)
100005f2:	6265      	str	r5, [r4, #36]	; 0x24
100005f4:	2200      	movs	r2, #0
100005f6:	61a5      	str	r5, [r4, #24]
100005f8:	a804      	add	r0, sp, #16
100005fa:	9300      	str	r3, [sp, #0]
100005fc:	2300      	movs	r3, #0
100005fe:	f7ff fe8b 	bl	10000318 <lcd_init>
10000602:	20fa      	movs	r0, #250	; 0xfa
10000604:	0080      	lsls	r0, r0, #2
10000606:	f000 fc5f 	bl	10000ec8 <sleep_ms>
1000060a:	466a      	mov	r2, sp
1000060c:	ab08      	add	r3, sp, #32
1000060e:	cb03      	ldmia	r3!, {r0, r1}
10000610:	c203      	stmia	r2!, {r0, r1}
10000612:	9804      	ldr	r0, [sp, #16]
10000614:	9905      	ldr	r1, [sp, #20]
10000616:	9a06      	ldr	r2, [sp, #24]
10000618:	9b07      	ldr	r3, [sp, #28]
1000061a:	f7ff ff33 	bl	10000484 <lcd_clear_display_blocking>
1000061e:	2301      	movs	r3, #1
10000620:	466a      	mov	r2, sp
10000622:	9303      	str	r3, [sp, #12]
10000624:	9302      	str	r3, [sp, #8]
10000626:	ab08      	add	r3, sp, #32
10000628:	cb03      	ldmia	r3!, {r0, r1}
1000062a:	c203      	stmia	r2!, {r0, r1}
1000062c:	9804      	ldr	r0, [sp, #16]
1000062e:	9905      	ldr	r1, [sp, #20]
10000630:	9a06      	ldr	r2, [sp, #24]
10000632:	9b07      	ldr	r3, [sp, #28]
10000634:	f7ff ff4c 	bl	100004d0 <lcd_set_cursor_style_blocking>
10000638:	2300      	movs	r3, #0
1000063a:	466a      	mov	r2, sp
1000063c:	9303      	str	r3, [sp, #12]
1000063e:	9302      	str	r3, [sp, #8]
10000640:	ab08      	add	r3, sp, #32
10000642:	cb03      	ldmia	r3!, {r0, r1}
10000644:	c203      	stmia	r2!, {r0, r1}
10000646:	9804      	ldr	r0, [sp, #16]
10000648:	9905      	ldr	r1, [sp, #20]
1000064a:	9a06      	ldr	r2, [sp, #24]
1000064c:	9b07      	ldr	r3, [sp, #28]
1000064e:	f7ff ff6b 	bl	10000528 <lcd_set_cursor_pos_blocking>
10000652:	2305      	movs	r3, #5
10000654:	466a      	mov	r2, sp
10000656:	9303      	str	r3, [sp, #12]
10000658:	4b09      	ldr	r3, [pc, #36]	; (10000680 <main+0xa4>)
1000065a:	9302      	str	r3, [sp, #8]
1000065c:	ab08      	add	r3, sp, #32
1000065e:	cb03      	ldmia	r3!, {r0, r1}
10000660:	c203      	stmia	r2!, {r0, r1}
10000662:	9804      	ldr	r0, [sp, #16]
10000664:	9905      	ldr	r1, [sp, #20]
10000666:	9a06      	ldr	r2, [sp, #24]
10000668:	9b07      	ldr	r3, [sp, #28]
1000066a:	f7ff ff85 	bl	10000578 <lcd_send_message_blocking>
1000066e:	2000      	movs	r0, #0
10000670:	6165      	str	r5, [r4, #20]
10000672:	b00b      	add	sp, #44	; 0x2c
10000674:	bd30      	pop	{r4, r5, pc}
10000676:	46c0      	nop			; (mov r8, r8)
10000678:	45160000 	.word	0x45160000
1000067c:	50200000 	.word	0x50200000
10000680:	10002650 	.word	0x10002650

10000684 <gpio_set_function>:
10000684:	4a09      	ldr	r2, [pc, #36]	; (100006ac <gpio_set_function+0x28>)
10000686:	0083      	lsls	r3, r0, #2
10000688:	4694      	mov	ip, r2
1000068a:	2240      	movs	r2, #64	; 0x40
1000068c:	4463      	add	r3, ip
1000068e:	b510      	push	{r4, lr}
10000690:	681c      	ldr	r4, [r3, #0]
10000692:	00c0      	lsls	r0, r0, #3
10000694:	4062      	eors	r2, r4
10000696:	24c0      	movs	r4, #192	; 0xc0
10000698:	4014      	ands	r4, r2
1000069a:	2280      	movs	r2, #128	; 0x80
1000069c:	0152      	lsls	r2, r2, #5
1000069e:	4313      	orrs	r3, r2
100006a0:	601c      	str	r4, [r3, #0]
100006a2:	4b03      	ldr	r3, [pc, #12]	; (100006b0 <gpio_set_function+0x2c>)
100006a4:	469c      	mov	ip, r3
100006a6:	4460      	add	r0, ip
100006a8:	6041      	str	r1, [r0, #4]
100006aa:	bd10      	pop	{r4, pc}
100006ac:	4001c004 	.word	0x4001c004
100006b0:	40014000 	.word	0x40014000

100006b4 <gpio_init>:
100006b4:	2301      	movs	r3, #1
100006b6:	22d0      	movs	r2, #208	; 0xd0
100006b8:	4083      	lsls	r3, r0
100006ba:	0612      	lsls	r2, r2, #24
100006bc:	6293      	str	r3, [r2, #40]	; 0x28
100006be:	6193      	str	r3, [r2, #24]
100006c0:	4a09      	ldr	r2, [pc, #36]	; (100006e8 <gpio_init+0x34>)
100006c2:	0083      	lsls	r3, r0, #2
100006c4:	4694      	mov	ip, r2
100006c6:	2240      	movs	r2, #64	; 0x40
100006c8:	4463      	add	r3, ip
100006ca:	6819      	ldr	r1, [r3, #0]
100006cc:	00c0      	lsls	r0, r0, #3
100006ce:	404a      	eors	r2, r1
100006d0:	21c0      	movs	r1, #192	; 0xc0
100006d2:	4011      	ands	r1, r2
100006d4:	2280      	movs	r2, #128	; 0x80
100006d6:	0152      	lsls	r2, r2, #5
100006d8:	4313      	orrs	r3, r2
100006da:	6019      	str	r1, [r3, #0]
100006dc:	4b03      	ldr	r3, [pc, #12]	; (100006ec <gpio_init+0x38>)
100006de:	469c      	mov	ip, r3
100006e0:	2305      	movs	r3, #5
100006e2:	4460      	add	r0, ip
100006e4:	6043      	str	r3, [r0, #4]
100006e6:	4770      	bx	lr
100006e8:	4001c004 	.word	0x4001c004
100006ec:	40014000 	.word	0x40014000

100006f0 <hw_claim_lock>:
100006f0:	f3ef 8010 	mrs	r0, PRIMASK
100006f4:	b672      	cpsid	i
100006f6:	4a03      	ldr	r2, [pc, #12]	; (10000704 <hw_claim_lock+0x14>)
100006f8:	6813      	ldr	r3, [r2, #0]
100006fa:	2b00      	cmp	r3, #0
100006fc:	d0fc      	beq.n	100006f8 <hw_claim_lock+0x8>
100006fe:	f3bf 8f5f 	dmb	sy
10000702:	4770      	bx	lr
10000704:	d000012c 	.word	0xd000012c

10000708 <hw_claim_unlock>:
10000708:	f3bf 8f5f 	dmb	sy
1000070c:	2200      	movs	r2, #0
1000070e:	4b02      	ldr	r3, [pc, #8]	; (10000718 <hw_claim_unlock+0x10>)
10000710:	601a      	str	r2, [r3, #0]
10000712:	f380 8810 	msr	PRIMASK, r0
10000716:	4770      	bx	lr
10000718:	d000012c 	.word	0xd000012c

1000071c <hw_claim_or_assert>:
1000071c:	b570      	push	{r4, r5, r6, lr}
1000071e:	f3ef 8c10 	mrs	ip, PRIMASK
10000722:	b672      	cpsid	i
10000724:	4d0d      	ldr	r5, [pc, #52]	; (1000075c <hw_claim_or_assert+0x40>)
10000726:	682b      	ldr	r3, [r5, #0]
10000728:	2b00      	cmp	r3, #0
1000072a:	d0fc      	beq.n	10000726 <hw_claim_or_assert+0xa>
1000072c:	f3bf 8f5f 	dmb	sy
10000730:	2407      	movs	r4, #7
10000732:	08cb      	lsrs	r3, r1, #3
10000734:	18c6      	adds	r6, r0, r3
10000736:	5cc0      	ldrb	r0, [r0, r3]
10000738:	2301      	movs	r3, #1
1000073a:	400c      	ands	r4, r1
1000073c:	40a3      	lsls	r3, r4
1000073e:	001c      	movs	r4, r3
10000740:	4004      	ands	r4, r0
10000742:	4203      	tst	r3, r0
10000744:	d107      	bne.n	10000756 <hw_claim_or_assert+0x3a>
10000746:	4303      	orrs	r3, r0
10000748:	7033      	strb	r3, [r6, #0]
1000074a:	f3bf 8f5f 	dmb	sy
1000074e:	602c      	str	r4, [r5, #0]
10000750:	f38c 8810 	msr	PRIMASK, ip
10000754:	bd70      	pop	{r4, r5, r6, pc}
10000756:	0010      	movs	r0, r2
10000758:	f000 ff98 	bl	1000168c <panic>
1000075c:	d000012c 	.word	0xd000012c

10000760 <running_on_fpga>:
10000760:	4b02      	ldr	r3, [pc, #8]	; (1000076c <running_on_fpga+0xc>)
10000762:	6818      	ldr	r0, [r3, #0]
10000764:	0780      	lsls	r0, r0, #30
10000766:	0fc0      	lsrs	r0, r0, #31
10000768:	4770      	bx	lr
1000076a:	46c0      	nop			; (mov r8, r8)
1000076c:	4006c000 	.word	0x4006c000

10000770 <spin_locks_reset>:
10000770:	2100      	movs	r1, #0
10000772:	4b04      	ldr	r3, [pc, #16]	; (10000784 <spin_locks_reset+0x14>)
10000774:	4a04      	ldr	r2, [pc, #16]	; (10000788 <spin_locks_reset+0x18>)
10000776:	f3bf 8f5f 	dmb	sy
1000077a:	c302      	stmia	r3!, {r1}
1000077c:	4293      	cmp	r3, r2
1000077e:	d1fa      	bne.n	10000776 <spin_locks_reset+0x6>
10000780:	4770      	bx	lr
10000782:	46c0      	nop			; (mov r8, r8)
10000784:	d0000100 	.word	0xd0000100
10000788:	d0000180 	.word	0xd0000180

1000078c <next_striped_spin_lock_num>:
1000078c:	4a04      	ldr	r2, [pc, #16]	; (100007a0 <next_striped_spin_lock_num+0x14>)
1000078e:	7810      	ldrb	r0, [r2, #0]
10000790:	1c43      	adds	r3, r0, #1
10000792:	b2db      	uxtb	r3, r3
10000794:	2b17      	cmp	r3, #23
10000796:	d900      	bls.n	1000079a <next_striped_spin_lock_num+0xe>
10000798:	2310      	movs	r3, #16
1000079a:	7013      	strb	r3, [r2, #0]
1000079c:	4770      	bx	lr
1000079e:	46c0      	nop			; (mov r8, r8)
100007a0:	200002b4 	.word	0x200002b4

100007a4 <timer_pool_entry_comparator>:
100007a4:	6883      	ldr	r3, [r0, #8]
100007a6:	480b      	ldr	r0, [pc, #44]	; (100007d4 <timer_pool_entry_comparator+0x30>)
100007a8:	b510      	push	{r4, lr}
100007aa:	4684      	mov	ip, r0
100007ac:	4461      	add	r1, ip
100007ae:	4462      	add	r2, ip
100007b0:	0109      	lsls	r1, r1, #4
100007b2:	0112      	lsls	r2, r2, #4
100007b4:	189a      	adds	r2, r3, r2
100007b6:	1859      	adds	r1, r3, r1
100007b8:	6854      	ldr	r4, [r2, #4]
100007ba:	684b      	ldr	r3, [r1, #4]
100007bc:	2001      	movs	r0, #1
100007be:	429c      	cmp	r4, r3
100007c0:	d801      	bhi.n	100007c6 <timer_pool_entry_comparator+0x22>
100007c2:	d002      	beq.n	100007ca <timer_pool_entry_comparator+0x26>
100007c4:	2000      	movs	r0, #0
100007c6:	b2c0      	uxtb	r0, r0
100007c8:	bd10      	pop	{r4, pc}
100007ca:	6812      	ldr	r2, [r2, #0]
100007cc:	680b      	ldr	r3, [r1, #0]
100007ce:	429a      	cmp	r2, r3
100007d0:	d8f9      	bhi.n	100007c6 <timer_pool_entry_comparator+0x22>
100007d2:	e7f7      	b.n	100007c4 <timer_pool_entry_comparator+0x20>
100007d4:	0fffffff 	.word	0x0fffffff

100007d8 <sleep_until_callback>:
100007d8:	4b0a      	ldr	r3, [pc, #40]	; (10000804 <sleep_until_callback+0x2c>)
100007da:	6819      	ldr	r1, [r3, #0]
100007dc:	f3ef 8010 	mrs	r0, PRIMASK
100007e0:	b672      	cpsid	i
100007e2:	680a      	ldr	r2, [r1, #0]
100007e4:	2a00      	cmp	r2, #0
100007e6:	d0fc      	beq.n	100007e2 <sleep_until_callback+0xa>
100007e8:	f3bf 8f5f 	dmb	sy
100007ec:	681b      	ldr	r3, [r3, #0]
100007ee:	f3bf 8f5f 	dmb	sy
100007f2:	2200      	movs	r2, #0
100007f4:	601a      	str	r2, [r3, #0]
100007f6:	f380 8810 	msr	PRIMASK, r0
100007fa:	bf40      	sev
100007fc:	2000      	movs	r0, #0
100007fe:	2100      	movs	r1, #0
10000800:	4770      	bx	lr
10000802:	46c0      	nop			; (mov r8, r8)
10000804:	20000834 	.word	0x20000834

10000808 <add_alarm_under_lock.isra.0>:
10000808:	b5f8      	push	{r3, r4, r5, r6, r7, lr}
1000080a:	4657      	mov	r7, sl
1000080c:	464e      	mov	r6, r9
1000080e:	4645      	mov	r5, r8
10000810:	46de      	mov	lr, fp
10000812:	b5e0      	push	{r5, r6, r7, lr}
10000814:	4699      	mov	r9, r3
10000816:	ab0c      	add	r3, sp, #48	; 0x30
10000818:	781c      	ldrb	r4, [r3, #0]
1000081a:	ab0d      	add	r3, sp, #52	; 0x34
1000081c:	781b      	ldrb	r3, [r3, #0]
1000081e:	0006      	movs	r6, r0
10000820:	4690      	mov	r8, r2
10000822:	469a      	mov	sl, r3
10000824:	6807      	ldr	r7, [r0, #0]
10000826:	2c00      	cmp	r4, #0
10000828:	d111      	bne.n	1000084e <add_alarm_under_lock.isra.0+0x46>
1000082a:	7bbc      	ldrb	r4, [r7, #14]
1000082c:	2c00      	cmp	r4, #0
1000082e:	d042      	beq.n	100008b6 <add_alarm_under_lock.isra.0+0xae>
10000830:	0065      	lsls	r5, r4, #1
10000832:	683b      	ldr	r3, [r7, #0]
10000834:	192d      	adds	r5, r5, r4
10000836:	3d03      	subs	r5, #3
10000838:	1959      	adds	r1, r3, r5
1000083a:	784b      	ldrb	r3, [r1, #1]
1000083c:	73bb      	strb	r3, [r7, #14]
1000083e:	2b00      	cmp	r3, #0
10000840:	d100      	bne.n	10000844 <add_alarm_under_lock.isra.0+0x3c>
10000842:	73fb      	strb	r3, [r7, #15]
10000844:	2300      	movs	r3, #0
10000846:	708b      	strb	r3, [r1, #2]
10000848:	704b      	strb	r3, [r1, #1]
1000084a:	700b      	strb	r3, [r1, #0]
1000084c:	e004      	b.n	10000858 <add_alarm_under_lock.isra.0+0x50>
1000084e:	0065      	lsls	r5, r4, #1
10000850:	683b      	ldr	r3, [r7, #0]
10000852:	192d      	adds	r5, r5, r4
10000854:	3d03      	subs	r5, #3
10000856:	1959      	adds	r1, r3, r5
10000858:	68b2      	ldr	r2, [r6, #8]
1000085a:	4b2a      	ldr	r3, [pc, #168]	; (10000904 <add_alarm_under_lock.isra.0+0xfc>)
1000085c:	4694      	mov	ip, r2
1000085e:	4642      	mov	r2, r8
10000860:	18e3      	adds	r3, r4, r3
10000862:	011b      	lsls	r3, r3, #4
10000864:	4463      	add	r3, ip
10000866:	601a      	str	r2, [r3, #0]
10000868:	464a      	mov	r2, r9
1000086a:	605a      	str	r2, [r3, #4]
1000086c:	9a0a      	ldr	r2, [sp, #40]	; 0x28
1000086e:	609a      	str	r2, [r3, #8]
10000870:	9a0b      	ldr	r2, [sp, #44]	; 0x2c
10000872:	60da      	str	r2, [r3, #12]
10000874:	2300      	movs	r3, #0
10000876:	708b      	strb	r3, [r1, #2]
10000878:	704b      	strb	r3, [r1, #1]
1000087a:	700b      	strb	r3, [r1, #0]
1000087c:	7b7b      	ldrb	r3, [r7, #13]
1000087e:	469b      	mov	fp, r3
10000880:	2b00      	cmp	r3, #0
10000882:	d02b      	beq.n	100008dc <add_alarm_under_lock.isra.0+0xd4>
10000884:	0022      	movs	r2, r4
10000886:	4659      	mov	r1, fp
10000888:	68b8      	ldr	r0, [r7, #8]
1000088a:	687b      	ldr	r3, [r7, #4]
1000088c:	4798      	blx	r3
1000088e:	683a      	ldr	r2, [r7, #0]
10000890:	2800      	cmp	r0, #0
10000892:	d016      	beq.n	100008c2 <add_alarm_under_lock.isra.0+0xba>
10000894:	465b      	mov	r3, fp
10000896:	4658      	mov	r0, fp
10000898:	005b      	lsls	r3, r3, #1
1000089a:	445b      	add	r3, fp
1000089c:	1955      	adds	r5, r2, r5
1000089e:	3b03      	subs	r3, #3
100008a0:	70a8      	strb	r0, [r5, #2]
100008a2:	18d1      	adds	r1, r2, r3
100008a4:	5cd3      	ldrb	r3, [r2, r3]
100008a6:	2b00      	cmp	r3, #0
100008a8:	d000      	beq.n	100008ac <add_alarm_under_lock.isra.0+0xa4>
100008aa:	706b      	strb	r3, [r5, #1]
100008ac:	465b      	mov	r3, fp
100008ae:	700c      	strb	r4, [r1, #0]
100008b0:	737b      	strb	r3, [r7, #13]
100008b2:	45a3      	cmp	fp, r4
100008b4:	d013      	beq.n	100008de <add_alarm_under_lock.isra.0+0xd6>
100008b6:	bcf0      	pop	{r4, r5, r6, r7}
100008b8:	46bb      	mov	fp, r7
100008ba:	46b2      	mov	sl, r6
100008bc:	46a9      	mov	r9, r5
100008be:	46a0      	mov	r8, r4
100008c0:	bdf8      	pop	{r3, r4, r5, r6, r7, pc}
100008c2:	465b      	mov	r3, fp
100008c4:	005b      	lsls	r3, r3, #1
100008c6:	445b      	add	r3, fp
100008c8:	3b03      	subs	r3, #3
100008ca:	18d3      	adds	r3, r2, r3
100008cc:	709c      	strb	r4, [r3, #2]
100008ce:	1951      	adds	r1, r2, r5
100008d0:	5d52      	ldrb	r2, [r2, r5]
100008d2:	2a00      	cmp	r2, #0
100008d4:	d000      	beq.n	100008d8 <add_alarm_under_lock.isra.0+0xd0>
100008d6:	705a      	strb	r2, [r3, #1]
100008d8:	465b      	mov	r3, fp
100008da:	700b      	strb	r3, [r1, #0]
100008dc:	737c      	strb	r4, [r7, #13]
100008de:	4642      	mov	r2, r8
100008e0:	464b      	mov	r3, r9
100008e2:	7d30      	ldrb	r0, [r6, #20]
100008e4:	f000 fbd4 	bl	10001090 <hardware_alarm_set_target>
100008e8:	1e05      	subs	r5, r0, #0
100008ea:	d006      	beq.n	100008fa <add_alarm_under_lock.isra.0+0xf2>
100008ec:	4653      	mov	r3, sl
100008ee:	2b00      	cmp	r3, #0
100008f0:	d103      	bne.n	100008fa <add_alarm_under_lock.isra.0+0xf2>
100008f2:	0021      	movs	r1, r4
100008f4:	6830      	ldr	r0, [r6, #0]
100008f6:	f000 fe11 	bl	1000151c <ph_remove_and_free_node>
100008fa:	9b0e      	ldr	r3, [sp, #56]	; 0x38
100008fc:	2b00      	cmp	r3, #0
100008fe:	d0da      	beq.n	100008b6 <add_alarm_under_lock.isra.0+0xae>
10000900:	701d      	strb	r5, [r3, #0]
10000902:	e7d8      	b.n	100008b6 <add_alarm_under_lock.isra.0+0xae>
10000904:	0fffffff 	.word	0x0fffffff

10000908 <alarm_pool_alarm_callback>:
10000908:	b5f0      	push	{r4, r5, r6, r7, lr}
1000090a:	46de      	mov	lr, fp
1000090c:	464e      	mov	r6, r9
1000090e:	4657      	mov	r7, sl
10000910:	4645      	mov	r5, r8
10000912:	2300      	movs	r3, #0
10000914:	b5e0      	push	{r5, r6, r7, lr}
10000916:	b08d      	sub	sp, #52	; 0x34
10000918:	930a      	str	r3, [sp, #40]	; 0x28
1000091a:	4b6b      	ldr	r3, [pc, #428]	; (10000ac8 <alarm_pool_alarm_callback+0x1c0>)
1000091c:	0082      	lsls	r2, r0, #2
1000091e:	58d3      	ldr	r3, [r2, r3]
10000920:	900b      	str	r0, [sp, #44]	; 0x2c
10000922:	4699      	mov	r9, r3
10000924:	2300      	movs	r3, #0
10000926:	469b      	mov	fp, r3
10000928:	464b      	mov	r3, r9
1000092a:	9307      	str	r3, [sp, #28]
1000092c:	f000 fb50 	bl	10000fd0 <time_us_64>
10000930:	9c07      	ldr	r4, [sp, #28]
10000932:	0006      	movs	r6, r0
10000934:	000f      	movs	r7, r1
10000936:	6862      	ldr	r2, [r4, #4]
10000938:	f3ef 8510 	mrs	r5, PRIMASK
1000093c:	b672      	cpsid	i
1000093e:	6813      	ldr	r3, [r2, #0]
10000940:	2b00      	cmp	r3, #0
10000942:	d0fc      	beq.n	1000093e <alarm_pool_alarm_callback+0x36>
10000944:	0022      	movs	r2, r4
10000946:	9407      	str	r4, [sp, #28]
10000948:	f3bf 8f5f 	dmb	sy
1000094c:	6824      	ldr	r4, [r4, #0]
1000094e:	7b63      	ldrb	r3, [r4, #13]
10000950:	4699      	mov	r9, r3
10000952:	2b00      	cmp	r3, #0
10000954:	d067      	beq.n	10000a26 <alarm_pool_alarm_callback+0x11e>
10000956:	6892      	ldr	r2, [r2, #8]
10000958:	4b5c      	ldr	r3, [pc, #368]	; (10000acc <alarm_pool_alarm_callback+0x1c4>)
1000095a:	4690      	mov	r8, r2
1000095c:	444b      	add	r3, r9
1000095e:	011b      	lsls	r3, r3, #4
10000960:	4498      	add	r8, r3
10000962:	4643      	mov	r3, r8
10000964:	681a      	ldr	r2, [r3, #0]
10000966:	685b      	ldr	r3, [r3, #4]
10000968:	0010      	movs	r0, r2
1000096a:	0019      	movs	r1, r3
1000096c:	1b80      	subs	r0, r0, r6
1000096e:	41b9      	sbcs	r1, r7
10000970:	2900      	cmp	r1, #0
10000972:	dd5f      	ble.n	10000a34 <alarm_pool_alarm_callback+0x12c>
10000974:	980b      	ldr	r0, [sp, #44]	; 0x2c
10000976:	f000 fb8b 	bl	10001090 <hardware_alarm_set_target>
1000097a:	2300      	movs	r3, #0
1000097c:	2600      	movs	r6, #0
1000097e:	4698      	mov	r8, r3
10000980:	2700      	movs	r7, #0
10000982:	469a      	mov	sl, r3
10000984:	9c07      	ldr	r4, [sp, #28]
10000986:	6863      	ldr	r3, [r4, #4]
10000988:	f3bf 8f5f 	dmb	sy
1000098c:	465a      	mov	r2, fp
1000098e:	601a      	str	r2, [r3, #0]
10000990:	f385 8810 	msr	PRIMASK, r5
10000994:	4653      	mov	r3, sl
10000996:	2b00      	cmp	r3, #0
10000998:	d108      	bne.n	100009ac <alarm_pool_alarm_callback+0xa4>
1000099a:	2800      	cmp	r0, #0
1000099c:	d1c6      	bne.n	1000092c <alarm_pool_alarm_callback+0x24>
1000099e:	b00d      	add	sp, #52	; 0x34
100009a0:	bcf0      	pop	{r4, r5, r6, r7}
100009a2:	46bb      	mov	fp, r7
100009a4:	46b2      	mov	sl, r6
100009a6:	46a9      	mov	r9, r5
100009a8:	46a0      	mov	r8, r4
100009aa:	bdf0      	pop	{r4, r5, r6, r7, pc}
100009ac:	9b0a      	ldr	r3, [sp, #40]	; 0x28
100009ae:	4641      	mov	r1, r8
100009b0:	0218      	lsls	r0, r3, #8
100009b2:	464b      	mov	r3, r9
100009b4:	4318      	orrs	r0, r3
100009b6:	47d0      	blx	sl
100009b8:	9008      	str	r0, [sp, #32]
100009ba:	9109      	str	r1, [sp, #36]	; 0x24
100009bc:	6862      	ldr	r2, [r4, #4]
100009be:	f3ef 8510 	mrs	r5, PRIMASK
100009c2:	b672      	cpsid	i
100009c4:	6813      	ldr	r3, [r2, #0]
100009c6:	2b00      	cmp	r3, #0
100009c8:	d0fc      	beq.n	100009c4 <alarm_pool_alarm_callback+0xbc>
100009ca:	9407      	str	r4, [sp, #28]
100009cc:	f3bf 8f5f 	dmb	sy
100009d0:	9908      	ldr	r1, [sp, #32]
100009d2:	9a09      	ldr	r2, [sp, #36]	; 0x24
100009d4:	2a00      	cmp	r2, #0
100009d6:	db48      	blt.n	10000a6a <alarm_pool_alarm_callback+0x162>
100009d8:	4311      	orrs	r1, r2
100009da:	d003      	beq.n	100009e4 <alarm_pool_alarm_callback+0xdc>
100009dc:	9b07      	ldr	r3, [sp, #28]
100009de:	691b      	ldr	r3, [r3, #16]
100009e0:	2b00      	cmp	r3, #0
100009e2:	d15d      	bne.n	10000aa0 <alarm_pool_alarm_callback+0x198>
100009e4:	9b07      	ldr	r3, [sp, #28]
100009e6:	681b      	ldr	r3, [r3, #0]
100009e8:	7bd9      	ldrb	r1, [r3, #15]
100009ea:	2900      	cmp	r1, #0
100009ec:	d007      	beq.n	100009fe <alarm_pool_alarm_callback+0xf6>
100009ee:	004a      	lsls	r2, r1, #1
100009f0:	1852      	adds	r2, r2, r1
100009f2:	6819      	ldr	r1, [r3, #0]
100009f4:	468c      	mov	ip, r1
100009f6:	4649      	mov	r1, r9
100009f8:	4462      	add	r2, ip
100009fa:	3a03      	subs	r2, #3
100009fc:	7051      	strb	r1, [r2, #1]
100009fe:	464a      	mov	r2, r9
10000a00:	73da      	strb	r2, [r3, #15]
10000a02:	464b      	mov	r3, r9
10000a04:	9a07      	ldr	r2, [sp, #28]
10000a06:	3b01      	subs	r3, #1
10000a08:	68d1      	ldr	r1, [r2, #12]
10000a0a:	5cca      	ldrb	r2, [r1, r3]
10000a0c:	3201      	adds	r2, #1
10000a0e:	54ca      	strb	r2, [r1, r3]
10000a10:	465b      	mov	r3, fp
10000a12:	9a07      	ldr	r2, [sp, #28]
10000a14:	6113      	str	r3, [r2, #16]
10000a16:	6853      	ldr	r3, [r2, #4]
10000a18:	f3bf 8f5f 	dmb	sy
10000a1c:	465a      	mov	r2, fp
10000a1e:	601a      	str	r2, [r3, #0]
10000a20:	f385 8810 	msr	PRIMASK, r5
10000a24:	e782      	b.n	1000092c <alarm_pool_alarm_callback+0x24>
10000a26:	2300      	movs	r3, #0
10000a28:	2600      	movs	r6, #0
10000a2a:	4698      	mov	r8, r3
10000a2c:	2700      	movs	r7, #0
10000a2e:	469a      	mov	sl, r3
10000a30:	2000      	movs	r0, #0
10000a32:	e7a7      	b.n	10000984 <alarm_pool_alarm_callback+0x7c>
10000a34:	2900      	cmp	r1, #0
10000a36:	d101      	bne.n	10000a3c <alarm_pool_alarm_callback+0x134>
10000a38:	2800      	cmp	r0, #0
10000a3a:	d19b      	bne.n	10000974 <alarm_pool_alarm_callback+0x6c>
10000a3c:	2100      	movs	r1, #0
10000a3e:	0020      	movs	r0, r4
10000a40:	f000 fcee 	bl	10001420 <ph_remove_head>
10000a44:	4643      	mov	r3, r8
10000a46:	681e      	ldr	r6, [r3, #0]
10000a48:	685f      	ldr	r7, [r3, #4]
10000a4a:	689b      	ldr	r3, [r3, #8]
10000a4c:	9a07      	ldr	r2, [sp, #28]
10000a4e:	469a      	mov	sl, r3
10000a50:	4643      	mov	r3, r8
10000a52:	68db      	ldr	r3, [r3, #12]
10000a54:	4698      	mov	r8, r3
10000a56:	68d3      	ldr	r3, [r2, #12]
10000a58:	444b      	add	r3, r9
10000a5a:	3b01      	subs	r3, #1
10000a5c:	781b      	ldrb	r3, [r3, #0]
10000a5e:	930a      	str	r3, [sp, #40]	; 0x28
10000a60:	021b      	lsls	r3, r3, #8
10000a62:	4303      	orrs	r3, r0
10000a64:	6113      	str	r3, [r2, #16]
10000a66:	2000      	movs	r0, #0
10000a68:	e78c      	b.n	10000984 <alarm_pool_alarm_callback+0x7c>
10000a6a:	6923      	ldr	r3, [r4, #16]
10000a6c:	2b00      	cmp	r3, #0
10000a6e:	d0b9      	beq.n	100009e4 <alarm_pool_alarm_callback+0xdc>
10000a70:	0033      	movs	r3, r6
10000a72:	003c      	movs	r4, r7
10000a74:	1a5b      	subs	r3, r3, r1
10000a76:	4194      	sbcs	r4, r2
10000a78:	001a      	movs	r2, r3
10000a7a:	0023      	movs	r3, r4
10000a7c:	42a7      	cmp	r7, r4
10000a7e:	d819      	bhi.n	10000ab4 <alarm_pool_alarm_callback+0x1ac>
10000a80:	429f      	cmp	r7, r3
10000a82:	d01b      	beq.n	10000abc <alarm_pool_alarm_callback+0x1b4>
10000a84:	4659      	mov	r1, fp
10000a86:	9104      	str	r1, [sp, #16]
10000a88:	2101      	movs	r1, #1
10000a8a:	9103      	str	r1, [sp, #12]
10000a8c:	4649      	mov	r1, r9
10000a8e:	9102      	str	r1, [sp, #8]
10000a90:	4641      	mov	r1, r8
10000a92:	9101      	str	r1, [sp, #4]
10000a94:	4651      	mov	r1, sl
10000a96:	9807      	ldr	r0, [sp, #28]
10000a98:	9100      	str	r1, [sp, #0]
10000a9a:	f7ff feb5 	bl	10000808 <add_alarm_under_lock.isra.0>
10000a9e:	e7b7      	b.n	10000a10 <alarm_pool_alarm_callback+0x108>
10000aa0:	f000 fa96 	bl	10000fd0 <time_us_64>
10000aa4:	9a08      	ldr	r2, [sp, #32]
10000aa6:	9b09      	ldr	r3, [sp, #36]	; 0x24
10000aa8:	0006      	movs	r6, r0
10000aaa:	000f      	movs	r7, r1
10000aac:	1992      	adds	r2, r2, r6
10000aae:	417b      	adcs	r3, r7
10000ab0:	4299      	cmp	r1, r3
10000ab2:	d9e5      	bls.n	10000a80 <alarm_pool_alarm_callback+0x178>
10000ab4:	2201      	movs	r2, #1
10000ab6:	4252      	negs	r2, r2
10000ab8:	17d3      	asrs	r3, r2, #31
10000aba:	e7e3      	b.n	10000a84 <alarm_pool_alarm_callback+0x17c>
10000abc:	4296      	cmp	r6, r2
10000abe:	d9e1      	bls.n	10000a84 <alarm_pool_alarm_callback+0x17c>
10000ac0:	2201      	movs	r2, #1
10000ac2:	4252      	negs	r2, r2
10000ac4:	17d3      	asrs	r3, r2, #31
10000ac6:	e7dd      	b.n	10000a84 <alarm_pool_alarm_callback+0x17c>
10000ac8:	20000818 	.word	0x20000818
10000acc:	0fffffff 	.word	0x0fffffff

10000ad0 <alarm_pool_add_alarm_at.constprop.0>:
10000ad0:	b5f8      	push	{r3, r4, r5, r6, r7, lr}
10000ad2:	4657      	mov	r7, sl
10000ad4:	464e      	mov	r6, r9
10000ad6:	4645      	mov	r5, r8
10000ad8:	46de      	mov	lr, fp
10000ada:	b5e0      	push	{r5, r6, r7, lr}
10000adc:	4d40      	ldr	r5, [pc, #256]	; (10000be0 <alarm_pool_add_alarm_at.constprop.0+0x110>)
10000ade:	4681      	mov	r9, r0
10000ae0:	468a      	mov	sl, r1
10000ae2:	686a      	ldr	r2, [r5, #4]
10000ae4:	f3ef 8810 	mrs	r8, PRIMASK
10000ae8:	b672      	cpsid	i
10000aea:	6813      	ldr	r3, [r2, #0]
10000aec:	2b00      	cmp	r3, #0
10000aee:	d0fc      	beq.n	10000aea <alarm_pool_add_alarm_at.constprop.0+0x1a>
10000af0:	f3bf 8f5f 	dmb	sy
10000af4:	682e      	ldr	r6, [r5, #0]
10000af6:	7bb4      	ldrb	r4, [r6, #14]
10000af8:	2c00      	cmp	r4, #0
10000afa:	d039      	beq.n	10000b70 <alarm_pool_add_alarm_at.constprop.0+0xa0>
10000afc:	0067      	lsls	r7, r4, #1
10000afe:	6833      	ldr	r3, [r6, #0]
10000b00:	193f      	adds	r7, r7, r4
10000b02:	3f03      	subs	r7, #3
10000b04:	19db      	adds	r3, r3, r7
10000b06:	785a      	ldrb	r2, [r3, #1]
10000b08:	73b2      	strb	r2, [r6, #14]
10000b0a:	2a00      	cmp	r2, #0
10000b0c:	d100      	bne.n	10000b10 <alarm_pool_add_alarm_at.constprop.0+0x40>
10000b0e:	73f2      	strb	r2, [r6, #15]
10000b10:	68a9      	ldr	r1, [r5, #8]
10000b12:	4a34      	ldr	r2, [pc, #208]	; (10000be4 <alarm_pool_add_alarm_at.constprop.0+0x114>)
10000b14:	468c      	mov	ip, r1
10000b16:	4649      	mov	r1, r9
10000b18:	18a2      	adds	r2, r4, r2
10000b1a:	0112      	lsls	r2, r2, #4
10000b1c:	4462      	add	r2, ip
10000b1e:	6011      	str	r1, [r2, #0]
10000b20:	4651      	mov	r1, sl
10000b22:	6051      	str	r1, [r2, #4]
10000b24:	4930      	ldr	r1, [pc, #192]	; (10000be8 <alarm_pool_add_alarm_at.constprop.0+0x118>)
10000b26:	6091      	str	r1, [r2, #8]
10000b28:	2100      	movs	r1, #0
10000b2a:	60d1      	str	r1, [r2, #12]
10000b2c:	7099      	strb	r1, [r3, #2]
10000b2e:	7059      	strb	r1, [r3, #1]
10000b30:	7019      	strb	r1, [r3, #0]
10000b32:	7b73      	ldrb	r3, [r6, #13]
10000b34:	469b      	mov	fp, r3
10000b36:	2b00      	cmp	r3, #0
10000b38:	d035      	beq.n	10000ba6 <alarm_pool_add_alarm_at.constprop.0+0xd6>
10000b3a:	0022      	movs	r2, r4
10000b3c:	0019      	movs	r1, r3
10000b3e:	68b0      	ldr	r0, [r6, #8]
10000b40:	6873      	ldr	r3, [r6, #4]
10000b42:	4798      	blx	r3
10000b44:	6832      	ldr	r2, [r6, #0]
10000b46:	2800      	cmp	r0, #0
10000b48:	d020      	beq.n	10000b8c <alarm_pool_add_alarm_at.constprop.0+0xbc>
10000b4a:	465b      	mov	r3, fp
10000b4c:	4658      	mov	r0, fp
10000b4e:	005b      	lsls	r3, r3, #1
10000b50:	445b      	add	r3, fp
10000b52:	19d7      	adds	r7, r2, r7
10000b54:	3b03      	subs	r3, #3
10000b56:	70b8      	strb	r0, [r7, #2]
10000b58:	18d1      	adds	r1, r2, r3
10000b5a:	5cd3      	ldrb	r3, [r2, r3]
10000b5c:	2b00      	cmp	r3, #0
10000b5e:	d000      	beq.n	10000b62 <alarm_pool_add_alarm_at.constprop.0+0x92>
10000b60:	707b      	strb	r3, [r7, #1]
10000b62:	465b      	mov	r3, fp
10000b64:	700c      	strb	r4, [r1, #0]
10000b66:	7373      	strb	r3, [r6, #13]
10000b68:	455c      	cmp	r4, fp
10000b6a:	d01d      	beq.n	10000ba8 <alarm_pool_add_alarm_at.constprop.0+0xd8>
10000b6c:	2600      	movs	r6, #0
10000b6e:	e026      	b.n	10000bbe <alarm_pool_add_alarm_at.constprop.0+0xee>
10000b70:	686b      	ldr	r3, [r5, #4]
10000b72:	f3bf 8f5f 	dmb	sy
10000b76:	601c      	str	r4, [r3, #0]
10000b78:	f388 8810 	msr	PRIMASK, r8
10000b7c:	2001      	movs	r0, #1
10000b7e:	4240      	negs	r0, r0
10000b80:	bcf0      	pop	{r4, r5, r6, r7}
10000b82:	46bb      	mov	fp, r7
10000b84:	46b2      	mov	sl, r6
10000b86:	46a9      	mov	r9, r5
10000b88:	46a0      	mov	r8, r4
10000b8a:	bdf8      	pop	{r3, r4, r5, r6, r7, pc}
10000b8c:	465b      	mov	r3, fp
10000b8e:	005b      	lsls	r3, r3, #1
10000b90:	445b      	add	r3, fp
10000b92:	3b03      	subs	r3, #3
10000b94:	18d3      	adds	r3, r2, r3
10000b96:	709c      	strb	r4, [r3, #2]
10000b98:	19d1      	adds	r1, r2, r7
10000b9a:	5dd2      	ldrb	r2, [r2, r7]
10000b9c:	2a00      	cmp	r2, #0
10000b9e:	d000      	beq.n	10000ba2 <alarm_pool_add_alarm_at.constprop.0+0xd2>
10000ba0:	705a      	strb	r2, [r3, #1]
10000ba2:	465b      	mov	r3, fp
10000ba4:	700b      	strb	r3, [r1, #0]
10000ba6:	7374      	strb	r4, [r6, #13]
10000ba8:	464a      	mov	r2, r9
10000baa:	4653      	mov	r3, sl
10000bac:	7d28      	ldrb	r0, [r5, #20]
10000bae:	f000 fa6f 	bl	10001090 <hardware_alarm_set_target>
10000bb2:	1e06      	subs	r6, r0, #0
10000bb4:	d0da      	beq.n	10000b6c <alarm_pool_add_alarm_at.constprop.0+0x9c>
10000bb6:	0021      	movs	r1, r4
10000bb8:	6828      	ldr	r0, [r5, #0]
10000bba:	f000 fcaf 	bl	1000151c <ph_remove_and_free_node>
10000bbe:	68eb      	ldr	r3, [r5, #12]
10000bc0:	191b      	adds	r3, r3, r4
10000bc2:	3b01      	subs	r3, #1
10000bc4:	7819      	ldrb	r1, [r3, #0]
10000bc6:	686b      	ldr	r3, [r5, #4]
10000bc8:	f3bf 8f5f 	dmb	sy
10000bcc:	2200      	movs	r2, #0
10000bce:	601a      	str	r2, [r3, #0]
10000bd0:	f388 8810 	msr	PRIMASK, r8
10000bd4:	2000      	movs	r0, #0
10000bd6:	2e00      	cmp	r6, #0
10000bd8:	d1d2      	bne.n	10000b80 <alarm_pool_add_alarm_at.constprop.0+0xb0>
10000bda:	0208      	lsls	r0, r1, #8
10000bdc:	4320      	orrs	r0, r4
10000bde:	e7cf      	b.n	10000b80 <alarm_pool_add_alarm_at.constprop.0+0xb0>
10000be0:	200002b8 	.word	0x200002b8
10000be4:	0fffffff 	.word	0x0fffffff
10000be8:	100007d9 	.word	0x100007d9

10000bec <alarm_pool_init_default>:
10000bec:	b510      	push	{r4, lr}
10000bee:	4c12      	ldr	r4, [pc, #72]	; (10000c38 <alarm_pool_init_default+0x4c>)
10000bf0:	6863      	ldr	r3, [r4, #4]
10000bf2:	2b00      	cmp	r3, #0
10000bf4:	d004      	beq.n	10000c00 <alarm_pool_init_default+0x14>
10000bf6:	210a      	movs	r1, #10
10000bf8:	4810      	ldr	r0, [pc, #64]	; (10000c3c <alarm_pool_init_default+0x50>)
10000bfa:	f000 fad7 	bl	100011ac <lock_init>
10000bfe:	bd10      	pop	{r4, pc}
10000c00:	0023      	movs	r3, r4
10000c02:	4a0f      	ldr	r2, [pc, #60]	; (10000c40 <alarm_pool_init_default+0x54>)
10000c04:	2110      	movs	r1, #16
10000c06:	6820      	ldr	r0, [r4, #0]
10000c08:	f000 fb28 	bl	1000125c <ph_post_alloc_init>
10000c0c:	2003      	movs	r0, #3
10000c0e:	f000 f9d3 	bl	10000fb8 <hardware_alarm_claim>
10000c12:	2003      	movs	r0, #3
10000c14:	f000 faac 	bl	10001170 <hardware_alarm_cancel>
10000c18:	2003      	movs	r0, #3
10000c1a:	490a      	ldr	r1, [pc, #40]	; (10000c44 <alarm_pool_init_default+0x58>)
10000c1c:	f000 f9f2 	bl	10001004 <hardware_alarm_set_callback>
10000c20:	f7ff fdb4 	bl	1000078c <next_striped_spin_lock_num>
10000c24:	4b08      	ldr	r3, [pc, #32]	; (10000c48 <alarm_pool_init_default+0x5c>)
10000c26:	469c      	mov	ip, r3
10000c28:	2303      	movs	r3, #3
10000c2a:	4460      	add	r0, ip
10000c2c:	7523      	strb	r3, [r4, #20]
10000c2e:	4b07      	ldr	r3, [pc, #28]	; (10000c4c <alarm_pool_init_default+0x60>)
10000c30:	0080      	lsls	r0, r0, #2
10000c32:	6060      	str	r0, [r4, #4]
10000c34:	60dc      	str	r4, [r3, #12]
10000c36:	e7de      	b.n	10000bf6 <alarm_pool_init_default+0xa>
10000c38:	200002b8 	.word	0x200002b8
10000c3c:	20000834 	.word	0x20000834
10000c40:	100007a5 	.word	0x100007a5
10000c44:	10000909 	.word	0x10000909
10000c48:	34000040 	.word	0x34000040
10000c4c:	20000818 	.word	0x20000818

10000c50 <alarm_pool_get_default>:
10000c50:	4800      	ldr	r0, [pc, #0]	; (10000c54 <alarm_pool_get_default+0x4>)
10000c52:	4770      	bx	lr
10000c54:	200002b8 	.word	0x200002b8

10000c58 <alarm_pool_add_alarm_at>:
10000c58:	b5f0      	push	{r4, r5, r6, r7, lr}
10000c5a:	4657      	mov	r7, sl
10000c5c:	464e      	mov	r6, r9
10000c5e:	4645      	mov	r5, r8
10000c60:	46de      	mov	lr, fp
10000c62:	b5e0      	push	{r5, r6, r7, lr}
10000c64:	b085      	sub	sp, #20
10000c66:	9301      	str	r3, [sp, #4]
10000c68:	ab10      	add	r3, sp, #64	; 0x40
10000c6a:	781b      	ldrb	r3, [r3, #0]
10000c6c:	0006      	movs	r6, r0
10000c6e:	9303      	str	r3, [sp, #12]
10000c70:	2300      	movs	r3, #0
10000c72:	469a      	mov	sl, r3
10000c74:	4698      	mov	r8, r3
10000c76:	9200      	str	r2, [sp, #0]
10000c78:	6872      	ldr	r2, [r6, #4]
10000c7a:	f3ef 8910 	mrs	r9, PRIMASK
10000c7e:	b672      	cpsid	i
10000c80:	6813      	ldr	r3, [r2, #0]
10000c82:	2b00      	cmp	r3, #0
10000c84:	d0fc      	beq.n	10000c80 <alarm_pool_add_alarm_at+0x28>
10000c86:	f3bf 8f5f 	dmb	sy
10000c8a:	6835      	ldr	r5, [r6, #0]
10000c8c:	7bac      	ldrb	r4, [r5, #14]
10000c8e:	2c00      	cmp	r4, #0
10000c90:	d049      	beq.n	10000d26 <alarm_pool_add_alarm_at+0xce>
10000c92:	0067      	lsls	r7, r4, #1
10000c94:	682b      	ldr	r3, [r5, #0]
10000c96:	193f      	adds	r7, r7, r4
10000c98:	3f03      	subs	r7, #3
10000c9a:	19db      	adds	r3, r3, r7
10000c9c:	785a      	ldrb	r2, [r3, #1]
10000c9e:	73aa      	strb	r2, [r5, #14]
10000ca0:	2a00      	cmp	r2, #0
10000ca2:	d100      	bne.n	10000ca6 <alarm_pool_add_alarm_at+0x4e>
10000ca4:	73ea      	strb	r2, [r5, #15]
10000ca6:	68b1      	ldr	r1, [r6, #8]
10000ca8:	4a4f      	ldr	r2, [pc, #316]	; (10000de8 <alarm_pool_add_alarm_at+0x190>)
10000caa:	468c      	mov	ip, r1
10000cac:	9800      	ldr	r0, [sp, #0]
10000cae:	9901      	ldr	r1, [sp, #4]
10000cb0:	18a2      	adds	r2, r4, r2
10000cb2:	0112      	lsls	r2, r2, #4
10000cb4:	4462      	add	r2, ip
10000cb6:	6010      	str	r0, [r2, #0]
10000cb8:	6051      	str	r1, [r2, #4]
10000cba:	990e      	ldr	r1, [sp, #56]	; 0x38
10000cbc:	6091      	str	r1, [r2, #8]
10000cbe:	990f      	ldr	r1, [sp, #60]	; 0x3c
10000cc0:	60d1      	str	r1, [r2, #12]
10000cc2:	4642      	mov	r2, r8
10000cc4:	709a      	strb	r2, [r3, #2]
10000cc6:	705a      	strb	r2, [r3, #1]
10000cc8:	701a      	strb	r2, [r3, #0]
10000cca:	7b6b      	ldrb	r3, [r5, #13]
10000ccc:	469b      	mov	fp, r3
10000cce:	2b00      	cmp	r3, #0
10000cd0:	d045      	beq.n	10000d5e <alarm_pool_add_alarm_at+0x106>
10000cd2:	0022      	movs	r2, r4
10000cd4:	0019      	movs	r1, r3
10000cd6:	68a8      	ldr	r0, [r5, #8]
10000cd8:	686b      	ldr	r3, [r5, #4]
10000cda:	4798      	blx	r3
10000cdc:	682a      	ldr	r2, [r5, #0]
10000cde:	2800      	cmp	r0, #0
10000ce0:	d030      	beq.n	10000d44 <alarm_pool_add_alarm_at+0xec>
10000ce2:	465b      	mov	r3, fp
10000ce4:	4658      	mov	r0, fp
10000ce6:	005b      	lsls	r3, r3, #1
10000ce8:	445b      	add	r3, fp
10000cea:	19d7      	adds	r7, r2, r7
10000cec:	3b03      	subs	r3, #3
10000cee:	70b8      	strb	r0, [r7, #2]
10000cf0:	18d1      	adds	r1, r2, r3
10000cf2:	5cd3      	ldrb	r3, [r2, r3]
10000cf4:	2b00      	cmp	r3, #0
10000cf6:	d000      	beq.n	10000cfa <alarm_pool_add_alarm_at+0xa2>
10000cf8:	707b      	strb	r3, [r7, #1]
10000cfa:	465b      	mov	r3, fp
10000cfc:	700c      	strb	r4, [r1, #0]
10000cfe:	736b      	strb	r3, [r5, #13]
10000d00:	455c      	cmp	r4, fp
10000d02:	d02d      	beq.n	10000d60 <alarm_pool_add_alarm_at+0x108>
10000d04:	68f3      	ldr	r3, [r6, #12]
10000d06:	191b      	adds	r3, r3, r4
10000d08:	3b01      	subs	r3, #1
10000d0a:	7818      	ldrb	r0, [r3, #0]
10000d0c:	6873      	ldr	r3, [r6, #4]
10000d0e:	f3bf 8f5f 	dmb	sy
10000d12:	4642      	mov	r2, r8
10000d14:	601a      	str	r2, [r3, #0]
10000d16:	f389 8810 	msr	PRIMASK, r9
10000d1a:	4653      	mov	r3, sl
10000d1c:	2b00      	cmp	r3, #0
10000d1e:	d12c      	bne.n	10000d7a <alarm_pool_add_alarm_at+0x122>
10000d20:	0200      	lsls	r0, r0, #8
10000d22:	4320      	orrs	r0, r4
10000d24:	e007      	b.n	10000d36 <alarm_pool_add_alarm_at+0xde>
10000d26:	6873      	ldr	r3, [r6, #4]
10000d28:	f3bf 8f5f 	dmb	sy
10000d2c:	601c      	str	r4, [r3, #0]
10000d2e:	f389 8810 	msr	PRIMASK, r9
10000d32:	2001      	movs	r0, #1
10000d34:	4240      	negs	r0, r0
10000d36:	b005      	add	sp, #20
10000d38:	bcf0      	pop	{r4, r5, r6, r7}
10000d3a:	46bb      	mov	fp, r7
10000d3c:	46b2      	mov	sl, r6
10000d3e:	46a9      	mov	r9, r5
10000d40:	46a0      	mov	r8, r4
10000d42:	bdf0      	pop	{r4, r5, r6, r7, pc}
10000d44:	465b      	mov	r3, fp
10000d46:	005b      	lsls	r3, r3, #1
10000d48:	445b      	add	r3, fp
10000d4a:	3b03      	subs	r3, #3
10000d4c:	18d3      	adds	r3, r2, r3
10000d4e:	709c      	strb	r4, [r3, #2]
10000d50:	19d1      	adds	r1, r2, r7
10000d52:	5dd2      	ldrb	r2, [r2, r7]
10000d54:	2a00      	cmp	r2, #0
10000d56:	d000      	beq.n	10000d5a <alarm_pool_add_alarm_at+0x102>
10000d58:	705a      	strb	r2, [r3, #1]
10000d5a:	465b      	mov	r3, fp
10000d5c:	700b      	strb	r3, [r1, #0]
10000d5e:	736c      	strb	r4, [r5, #13]
10000d60:	7d30      	ldrb	r0, [r6, #20]
10000d62:	9a00      	ldr	r2, [sp, #0]
10000d64:	9b01      	ldr	r3, [sp, #4]
10000d66:	f000 f993 	bl	10001090 <hardware_alarm_set_target>
10000d6a:	4682      	mov	sl, r0
10000d6c:	2800      	cmp	r0, #0
10000d6e:	d0c9      	beq.n	10000d04 <alarm_pool_add_alarm_at+0xac>
10000d70:	0021      	movs	r1, r4
10000d72:	6830      	ldr	r0, [r6, #0]
10000d74:	f000 fbd2 	bl	1000151c <ph_remove_and_free_node>
10000d78:	e7c4      	b.n	10000d04 <alarm_pool_add_alarm_at+0xac>
10000d7a:	9b03      	ldr	r3, [sp, #12]
10000d7c:	2b00      	cmp	r3, #0
10000d7e:	d030      	beq.n	10000de2 <alarm_pool_add_alarm_at+0x18a>
10000d80:	9b0e      	ldr	r3, [sp, #56]	; 0x38
10000d82:	2000      	movs	r0, #0
10000d84:	990f      	ldr	r1, [sp, #60]	; 0x3c
10000d86:	4798      	blx	r3
10000d88:	0003      	movs	r3, r0
10000d8a:	0004      	movs	r4, r0
10000d8c:	000d      	movs	r5, r1
10000d8e:	430b      	orrs	r3, r1
10000d90:	d027      	beq.n	10000de2 <alarm_pool_add_alarm_at+0x18a>
10000d92:	2900      	cmp	r1, #0
10000d94:	da0d      	bge.n	10000db2 <alarm_pool_add_alarm_at+0x15a>
10000d96:	9800      	ldr	r0, [sp, #0]
10000d98:	9901      	ldr	r1, [sp, #4]
10000d9a:	0002      	movs	r2, r0
10000d9c:	000b      	movs	r3, r1
10000d9e:	1b12      	subs	r2, r2, r4
10000da0:	41ab      	sbcs	r3, r5
10000da2:	4299      	cmp	r1, r3
10000da4:	d813      	bhi.n	10000dce <alarm_pool_add_alarm_at+0x176>
10000da6:	d018      	beq.n	10000dda <alarm_pool_add_alarm_at+0x182>
10000da8:	9200      	str	r2, [sp, #0]
10000daa:	9301      	str	r3, [sp, #4]
10000dac:	9b03      	ldr	r3, [sp, #12]
10000dae:	469a      	mov	sl, r3
10000db0:	e762      	b.n	10000c78 <alarm_pool_add_alarm_at+0x20>
10000db2:	f000 f90d 	bl	10000fd0 <time_us_64>
10000db6:	0002      	movs	r2, r0
10000db8:	000b      	movs	r3, r1
10000dba:	18a4      	adds	r4, r4, r2
10000dbc:	415d      	adcs	r5, r3
10000dbe:	9400      	str	r4, [sp, #0]
10000dc0:	9501      	str	r5, [sp, #4]
10000dc2:	42a9      	cmp	r1, r5
10000dc4:	d803      	bhi.n	10000dce <alarm_pool_add_alarm_at+0x176>
10000dc6:	d1f1      	bne.n	10000dac <alarm_pool_add_alarm_at+0x154>
10000dc8:	9900      	ldr	r1, [sp, #0]
10000dca:	428a      	cmp	r2, r1
10000dcc:	d9ee      	bls.n	10000dac <alarm_pool_add_alarm_at+0x154>
10000dce:	2301      	movs	r3, #1
10000dd0:	425b      	negs	r3, r3
10000dd2:	17dc      	asrs	r4, r3, #31
10000dd4:	9300      	str	r3, [sp, #0]
10000dd6:	9401      	str	r4, [sp, #4]
10000dd8:	e7e8      	b.n	10000dac <alarm_pool_add_alarm_at+0x154>
10000dda:	9900      	ldr	r1, [sp, #0]
10000ddc:	4291      	cmp	r1, r2
10000dde:	d9e3      	bls.n	10000da8 <alarm_pool_add_alarm_at+0x150>
10000de0:	e7f5      	b.n	10000dce <alarm_pool_add_alarm_at+0x176>
10000de2:	2000      	movs	r0, #0
10000de4:	e7a7      	b.n	10000d36 <alarm_pool_add_alarm_at+0xde>
10000de6:	46c0      	nop			; (mov r8, r8)
10000de8:	0fffffff 	.word	0x0fffffff

10000dec <sleep_until>:
10000dec:	b5f0      	push	{r4, r5, r6, r7, lr}
10000dee:	0004      	movs	r4, r0
10000df0:	000d      	movs	r5, r1
10000df2:	2606      	movs	r6, #6
10000df4:	4276      	negs	r6, r6
10000df6:	17f7      	asrs	r7, r6, #31
10000df8:	46c6      	mov	lr, r8
10000dfa:	1936      	adds	r6, r6, r4
10000dfc:	416f      	adcs	r7, r5
10000dfe:	b500      	push	{lr}
10000e00:	428f      	cmp	r7, r1
10000e02:	d813      	bhi.n	10000e2c <sleep_until+0x40>
10000e04:	d010      	beq.n	10000e28 <sleep_until+0x3c>
10000e06:	f000 f8e3 	bl	10000fd0 <time_us_64>
10000e0a:	0032      	movs	r2, r6
10000e0c:	003b      	movs	r3, r7
10000e0e:	1a12      	subs	r2, r2, r0
10000e10:	418b      	sbcs	r3, r1
10000e12:	2b00      	cmp	r3, #0
10000e14:	dc14      	bgt.n	10000e40 <sleep_until+0x54>
10000e16:	2b00      	cmp	r3, #0
10000e18:	d037      	beq.n	10000e8a <sleep_until+0x9e>
10000e1a:	0029      	movs	r1, r5
10000e1c:	0020      	movs	r0, r4
10000e1e:	f000 f8e1 	bl	10000fe4 <busy_wait_until>
10000e22:	bc80      	pop	{r7}
10000e24:	46b8      	mov	r8, r7
10000e26:	bdf0      	pop	{r4, r5, r6, r7, pc}
10000e28:	4286      	cmp	r6, r0
10000e2a:	d9ec      	bls.n	10000e06 <sleep_until+0x1a>
10000e2c:	2600      	movs	r6, #0
10000e2e:	2700      	movs	r7, #0
10000e30:	f000 f8ce 	bl	10000fd0 <time_us_64>
10000e34:	0032      	movs	r2, r6
10000e36:	003b      	movs	r3, r7
10000e38:	1a12      	subs	r2, r2, r0
10000e3a:	418b      	sbcs	r3, r1
10000e3c:	2b00      	cmp	r3, #0
10000e3e:	ddea      	ble.n	10000e16 <sleep_until+0x2a>
10000e40:	0030      	movs	r0, r6
10000e42:	0039      	movs	r1, r7
10000e44:	f7ff fe44 	bl	10000ad0 <alarm_pool_add_alarm_at.constprop.0>
10000e48:	2800      	cmp	r0, #0
10000e4a:	dbe6      	blt.n	10000e1a <sleep_until+0x2e>
10000e4c:	2300      	movs	r3, #0
10000e4e:	4698      	mov	r8, r3
10000e50:	46bc      	mov	ip, r7
10000e52:	4a0f      	ldr	r2, [pc, #60]	; (10000e90 <sleep_until+0xa4>)
10000e54:	4f0f      	ldr	r7, [pc, #60]	; (10000e94 <sleep_until+0xa8>)
10000e56:	6a7b      	ldr	r3, [r7, #36]	; 0x24
10000e58:	459c      	cmp	ip, r3
10000e5a:	d804      	bhi.n	10000e66 <sleep_until+0x7a>
10000e5c:	6ab9      	ldr	r1, [r7, #40]	; 0x28
10000e5e:	428e      	cmp	r6, r1
10000e60:	d9db      	bls.n	10000e1a <sleep_until+0x2e>
10000e62:	459c      	cmp	ip, r3
10000e64:	d1d9      	bne.n	10000e1a <sleep_until+0x2e>
10000e66:	6811      	ldr	r1, [r2, #0]
10000e68:	f3ef 8010 	mrs	r0, PRIMASK
10000e6c:	b672      	cpsid	i
10000e6e:	680b      	ldr	r3, [r1, #0]
10000e70:	2b00      	cmp	r3, #0
10000e72:	d0fc      	beq.n	10000e6e <sleep_until+0x82>
10000e74:	f3bf 8f5f 	dmb	sy
10000e78:	6813      	ldr	r3, [r2, #0]
10000e7a:	f3bf 8f5f 	dmb	sy
10000e7e:	4641      	mov	r1, r8
10000e80:	6019      	str	r1, [r3, #0]
10000e82:	f380 8810 	msr	PRIMASK, r0
10000e86:	bf20      	wfe
10000e88:	e7e5      	b.n	10000e56 <sleep_until+0x6a>
10000e8a:	2a00      	cmp	r2, #0
10000e8c:	d0c5      	beq.n	10000e1a <sleep_until+0x2e>
10000e8e:	e7d7      	b.n	10000e40 <sleep_until+0x54>
10000e90:	20000834 	.word	0x20000834
10000e94:	40054000 	.word	0x40054000

10000e98 <sleep_us>:
10000e98:	b570      	push	{r4, r5, r6, lr}
10000e9a:	0004      	movs	r4, r0
10000e9c:	000d      	movs	r5, r1
10000e9e:	f000 f897 	bl	10000fd0 <time_us_64>
10000ea2:	0002      	movs	r2, r0
10000ea4:	000b      	movs	r3, r1
10000ea6:	0020      	movs	r0, r4
10000ea8:	0029      	movs	r1, r5
10000eaa:	1880      	adds	r0, r0, r2
10000eac:	4159      	adcs	r1, r3
10000eae:	428b      	cmp	r3, r1
10000eb0:	d805      	bhi.n	10000ebe <sleep_us+0x26>
10000eb2:	d002      	beq.n	10000eba <sleep_us+0x22>
10000eb4:	f7ff ff9a 	bl	10000dec <sleep_until>
10000eb8:	bd70      	pop	{r4, r5, r6, pc}
10000eba:	4282      	cmp	r2, r0
10000ebc:	d9fa      	bls.n	10000eb4 <sleep_us+0x1c>
10000ebe:	2001      	movs	r0, #1
10000ec0:	4240      	negs	r0, r0
10000ec2:	17c1      	asrs	r1, r0, #31
10000ec4:	e7f6      	b.n	10000eb4 <sleep_us+0x1c>
10000ec6:	46c0      	nop			; (mov r8, r8)

10000ec8 <sleep_ms>:
10000ec8:	b570      	push	{r4, r5, r6, lr}
10000eca:	0006      	movs	r6, r0
10000ecc:	f000 f880 	bl	10000fd0 <time_us_64>
10000ed0:	22fa      	movs	r2, #250	; 0xfa
10000ed2:	0004      	movs	r4, r0
10000ed4:	000d      	movs	r5, r1
10000ed6:	2300      	movs	r3, #0
10000ed8:	0030      	movs	r0, r6
10000eda:	2100      	movs	r1, #0
10000edc:	0092      	lsls	r2, r2, #2
10000ede:	f001 f831 	bl	10001f44 <__wrap___aeabi_lmul>
10000ee2:	1900      	adds	r0, r0, r4
10000ee4:	4169      	adcs	r1, r5
10000ee6:	428d      	cmp	r5, r1
10000ee8:	d805      	bhi.n	10000ef6 <sleep_ms+0x2e>
10000eea:	d002      	beq.n	10000ef2 <sleep_ms+0x2a>
10000eec:	f7ff ff7e 	bl	10000dec <sleep_until>
10000ef0:	bd70      	pop	{r4, r5, r6, pc}
10000ef2:	4284      	cmp	r4, r0
10000ef4:	d9fa      	bls.n	10000eec <sleep_ms+0x24>
10000ef6:	2001      	movs	r0, #1
10000ef8:	4240      	negs	r0, r0
10000efa:	17c1      	asrs	r1, r0, #31
10000efc:	e7f6      	b.n	10000eec <sleep_ms+0x24>
10000efe:	46c0      	nop			; (mov r8, r8)

10000f00 <hardware_alarm_irq_handler>:
10000f00:	b5f0      	push	{r4, r5, r6, r7, lr}
10000f02:	46d6      	mov	lr, sl
10000f04:	464f      	mov	r7, r9
10000f06:	4646      	mov	r6, r8
10000f08:	b5c0      	push	{r6, r7, lr}
10000f0a:	f3ef 8305 	mrs	r3, IPSR
10000f0e:	223f      	movs	r2, #63	; 0x3f
10000f10:	4013      	ands	r3, r2
10000f12:	0018      	movs	r0, r3
10000f14:	3810      	subs	r0, #16
10000f16:	f3ef 8c10 	mrs	ip, PRIMASK
10000f1a:	b672      	cpsid	i
10000f1c:	4d20      	ldr	r5, [pc, #128]	; (10000fa0 <hardware_alarm_irq_handler+0xa0>)
10000f1e:	682a      	ldr	r2, [r5, #0]
10000f20:	2a00      	cmp	r2, #0
10000f22:	d0fc      	beq.n	10000f1e <hardware_alarm_irq_handler+0x1e>
10000f24:	f3bf 8f5f 	dmb	sy
10000f28:	2201      	movs	r2, #1
10000f2a:	0011      	movs	r1, r2
10000f2c:	4081      	lsls	r1, r0
10000f2e:	4c1d      	ldr	r4, [pc, #116]	; (10000fa4 <hardware_alarm_irq_handler+0xa4>)
10000f30:	4688      	mov	r8, r1
10000f32:	6361      	str	r1, [r4, #52]	; 0x34
10000f34:	491c      	ldr	r1, [pc, #112]	; (10000fa8 <hardware_alarm_irq_handler+0xa8>)
10000f36:	0017      	movs	r7, r2
10000f38:	780e      	ldrb	r6, [r1, #0]
10000f3a:	468a      	mov	sl, r1
10000f3c:	0031      	movs	r1, r6
10000f3e:	40c1      	lsrs	r1, r0
10000f40:	400f      	ands	r7, r1
10000f42:	420a      	tst	r2, r1
10000f44:	d109      	bne.n	10000f5a <hardware_alarm_irq_handler+0x5a>
10000f46:	f3bf 8f5f 	dmb	sy
10000f4a:	602f      	str	r7, [r5, #0]
10000f4c:	f38c 8810 	msr	PRIMASK, ip
10000f50:	bce0      	pop	{r5, r6, r7}
10000f52:	46ba      	mov	sl, r7
10000f54:	46b1      	mov	r9, r6
10000f56:	46a8      	mov	r8, r5
10000f58:	bdf0      	pop	{r4, r5, r6, r7, pc}
10000f5a:	4914      	ldr	r1, [pc, #80]	; (10000fac <hardware_alarm_irq_handler+0xac>)
10000f5c:	0082      	lsls	r2, r0, #2
10000f5e:	6a64      	ldr	r4, [r4, #36]	; 0x24
10000f60:	5851      	ldr	r1, [r2, r1]
10000f62:	428c      	cmp	r4, r1
10000f64:	d30f      	bcc.n	10000f86 <hardware_alarm_irq_handler+0x86>
10000f66:	4b12      	ldr	r3, [pc, #72]	; (10000fb0 <hardware_alarm_irq_handler+0xb0>)
10000f68:	58d2      	ldr	r2, [r2, r3]
10000f6a:	4643      	mov	r3, r8
10000f6c:	439e      	bics	r6, r3
10000f6e:	4653      	mov	r3, sl
10000f70:	701e      	strb	r6, [r3, #0]
10000f72:	f3bf 8f5f 	dmb	sy
10000f76:	2300      	movs	r3, #0
10000f78:	602b      	str	r3, [r5, #0]
10000f7a:	f38c 8810 	msr	PRIMASK, ip
10000f7e:	2a00      	cmp	r2, #0
10000f80:	d0e6      	beq.n	10000f50 <hardware_alarm_irq_handler+0x50>
10000f82:	4790      	blx	r2
10000f84:	e7e4      	b.n	10000f50 <hardware_alarm_irq_handler+0x50>
10000f86:	4a0b      	ldr	r2, [pc, #44]	; (10000fb4 <hardware_alarm_irq_handler+0xb4>)
10000f88:	009b      	lsls	r3, r3, #2
10000f8a:	4690      	mov	r8, r2
10000f8c:	4443      	add	r3, r8
10000f8e:	681a      	ldr	r2, [r3, #0]
10000f90:	601a      	str	r2, [r3, #0]
10000f92:	f3bf 8f5f 	dmb	sy
10000f96:	2300      	movs	r3, #0
10000f98:	602b      	str	r3, [r5, #0]
10000f9a:	f38c 8810 	msr	PRIMASK, ip
10000f9e:	e7d7      	b.n	10000f50 <hardware_alarm_irq_handler+0x50>
10000fa0:	d0000128 	.word	0xd0000128
10000fa4:	40054000 	.word	0x40054000
10000fa8:	2000084b 	.word	0x2000084b
10000fac:	20000838 	.word	0x20000838
10000fb0:	20000694 	.word	0x20000694
10000fb4:	40053fd0 	.word	0x40053fd0

10000fb8 <hardware_alarm_claim>:
10000fb8:	b510      	push	{r4, lr}
10000fba:	0001      	movs	r1, r0
10000fbc:	4a02      	ldr	r2, [pc, #8]	; (10000fc8 <hardware_alarm_claim+0x10>)
10000fbe:	4803      	ldr	r0, [pc, #12]	; (10000fcc <hardware_alarm_claim+0x14>)
10000fc0:	f7ff fbac 	bl	1000071c <hw_claim_or_assert>
10000fc4:	bd10      	pop	{r4, pc}
10000fc6:	46c0      	nop			; (mov r8, r8)
10000fc8:	1000266c 	.word	0x1000266c
10000fcc:	20000849 	.word	0x20000849

10000fd0 <time_us_64>:
10000fd0:	4b03      	ldr	r3, [pc, #12]	; (10000fe0 <time_us_64+0x10>)
10000fd2:	6a59      	ldr	r1, [r3, #36]	; 0x24
10000fd4:	000a      	movs	r2, r1
10000fd6:	6a98      	ldr	r0, [r3, #40]	; 0x28
10000fd8:	6a59      	ldr	r1, [r3, #36]	; 0x24
10000fda:	428a      	cmp	r2, r1
10000fdc:	d1fa      	bne.n	10000fd4 <time_us_64+0x4>
10000fde:	4770      	bx	lr
10000fe0:	40054000 	.word	0x40054000

10000fe4 <busy_wait_until>:
10000fe4:	4a06      	ldr	r2, [pc, #24]	; (10001000 <busy_wait_until+0x1c>)
10000fe6:	6a53      	ldr	r3, [r2, #36]	; 0x24
10000fe8:	4299      	cmp	r1, r3
10000fea:	d8fc      	bhi.n	10000fe6 <busy_wait_until+0x2>
10000fec:	d107      	bne.n	10000ffe <busy_wait_until+0x1a>
10000fee:	4b04      	ldr	r3, [pc, #16]	; (10001000 <busy_wait_until+0x1c>)
10000ff0:	e002      	b.n	10000ff8 <busy_wait_until+0x14>
10000ff2:	6a5a      	ldr	r2, [r3, #36]	; 0x24
10000ff4:	4291      	cmp	r1, r2
10000ff6:	d102      	bne.n	10000ffe <busy_wait_until+0x1a>
10000ff8:	6a9a      	ldr	r2, [r3, #40]	; 0x28
10000ffa:	4282      	cmp	r2, r0
10000ffc:	d3f9      	bcc.n	10000ff2 <busy_wait_until+0xe>
10000ffe:	4770      	bx	lr
10001000:	40054000 	.word	0x40054000

10001004 <hardware_alarm_set_callback>:
10001004:	b570      	push	{r4, r5, r6, lr}
10001006:	0004      	movs	r4, r0
10001008:	000d      	movs	r5, r1
1000100a:	f3ef 8610 	mrs	r6, PRIMASK
1000100e:	b672      	cpsid	i
10001010:	4a1a      	ldr	r2, [pc, #104]	; (1000107c <hardware_alarm_set_callback+0x78>)
10001012:	6813      	ldr	r3, [r2, #0]
10001014:	2b00      	cmp	r3, #0
10001016:	d0fc      	beq.n	10001012 <hardware_alarm_set_callback+0xe>
10001018:	f3bf 8f5f 	dmb	sy
1000101c:	2d00      	cmp	r5, #0
1000101e:	d01b      	beq.n	10001058 <hardware_alarm_set_callback+0x54>
10001020:	0020      	movs	r0, r4
10001022:	f000 fcc7 	bl	100019b4 <irq_get_vtable_handler>
10001026:	4916      	ldr	r1, [pc, #88]	; (10001080 <hardware_alarm_set_callback+0x7c>)
10001028:	4281      	cmp	r1, r0
1000102a:	d00a      	beq.n	10001042 <hardware_alarm_set_callback+0x3e>
1000102c:	0020      	movs	r0, r4
1000102e:	f000 fcc9 	bl	100019c4 <irq_set_exclusive_handler>
10001032:	2101      	movs	r1, #1
10001034:	0020      	movs	r0, r4
10001036:	f000 fcab 	bl	10001990 <irq_set_enabled>
1000103a:	2301      	movs	r3, #1
1000103c:	40a3      	lsls	r3, r4
1000103e:	4a11      	ldr	r2, [pc, #68]	; (10001084 <hardware_alarm_set_callback+0x80>)
10001040:	6013      	str	r3, [r2, #0]
10001042:	4b11      	ldr	r3, [pc, #68]	; (10001088 <hardware_alarm_set_callback+0x84>)
10001044:	00a4      	lsls	r4, r4, #2
10001046:	50e5      	str	r5, [r4, r3]
10001048:	f3bf 8f5f 	dmb	sy
1000104c:	2200      	movs	r2, #0
1000104e:	4b0b      	ldr	r3, [pc, #44]	; (1000107c <hardware_alarm_set_callback+0x78>)
10001050:	601a      	str	r2, [r3, #0]
10001052:	f386 8810 	msr	PRIMASK, r6
10001056:	bd70      	pop	{r4, r5, r6, pc}
10001058:	4b0b      	ldr	r3, [pc, #44]	; (10001088 <hardware_alarm_set_callback+0x84>)
1000105a:	00a2      	lsls	r2, r4, #2
1000105c:	50d5      	str	r5, [r2, r3]
1000105e:	2201      	movs	r2, #1
10001060:	40a2      	lsls	r2, r4
10001062:	490a      	ldr	r1, [pc, #40]	; (1000108c <hardware_alarm_set_callback+0x88>)
10001064:	0020      	movs	r0, r4
10001066:	780b      	ldrb	r3, [r1, #0]
10001068:	4393      	bics	r3, r2
1000106a:	700b      	strb	r3, [r1, #0]
1000106c:	4904      	ldr	r1, [pc, #16]	; (10001080 <hardware_alarm_set_callback+0x7c>)
1000106e:	f000 fcd3 	bl	10001a18 <irq_remove_handler>
10001072:	2100      	movs	r1, #0
10001074:	0020      	movs	r0, r4
10001076:	f000 fc8b 	bl	10001990 <irq_set_enabled>
1000107a:	e7e5      	b.n	10001048 <hardware_alarm_set_callback+0x44>
1000107c:	d0000128 	.word	0xd0000128
10001080:	10000f01 	.word	0x10000f01
10001084:	40056038 	.word	0x40056038
10001088:	20000694 	.word	0x20000694
1000108c:	2000084b 	.word	0x2000084b

10001090 <hardware_alarm_set_target>:
10001090:	b5f0      	push	{r4, r5, r6, r7, lr}
10001092:	464f      	mov	r7, r9
10001094:	46d6      	mov	lr, sl
10001096:	4646      	mov	r6, r8
10001098:	b5c0      	push	{r6, r7, lr}
1000109a:	0007      	movs	r7, r0
1000109c:	4c2f      	ldr	r4, [pc, #188]	; (1000115c <hardware_alarm_set_target+0xcc>)
1000109e:	6a61      	ldr	r1, [r4, #36]	; 0x24
100010a0:	000d      	movs	r5, r1
100010a2:	6aa6      	ldr	r6, [r4, #40]	; 0x28
100010a4:	6a61      	ldr	r1, [r4, #36]	; 0x24
100010a6:	42a9      	cmp	r1, r5
100010a8:	d1fa      	bne.n	100010a0 <hardware_alarm_set_target+0x10>
100010aa:	428b      	cmp	r3, r1
100010ac:	d808      	bhi.n	100010c0 <hardware_alarm_set_target+0x30>
100010ae:	d005      	beq.n	100010bc <hardware_alarm_set_target+0x2c>
100010b0:	2001      	movs	r0, #1
100010b2:	bce0      	pop	{r5, r6, r7}
100010b4:	46ba      	mov	sl, r7
100010b6:	46b1      	mov	r9, r6
100010b8:	46a8      	mov	r8, r5
100010ba:	bdf0      	pop	{r4, r5, r6, r7, pc}
100010bc:	42b2      	cmp	r2, r6
100010be:	d9f7      	bls.n	100010b0 <hardware_alarm_set_target+0x20>
100010c0:	f3ef 8a10 	mrs	sl, PRIMASK
100010c4:	b672      	cpsid	i
100010c6:	4826      	ldr	r0, [pc, #152]	; (10001160 <hardware_alarm_set_target+0xd0>)
100010c8:	6801      	ldr	r1, [r0, #0]
100010ca:	2900      	cmp	r1, #0
100010cc:	d0fc      	beq.n	100010c8 <hardware_alarm_set_target+0x38>
100010ce:	f3bf 8f5f 	dmb	sy
100010d2:	2501      	movs	r5, #1
100010d4:	40bd      	lsls	r5, r7
100010d6:	4923      	ldr	r1, [pc, #140]	; (10001164 <hardware_alarm_set_target+0xd4>)
100010d8:	4c20      	ldr	r4, [pc, #128]	; (1000115c <hardware_alarm_set_target+0xcc>)
100010da:	4688      	mov	r8, r1
100010dc:	7809      	ldrb	r1, [r1, #0]
100010de:	4689      	mov	r9, r1
100010e0:	4329      	orrs	r1, r5
100010e2:	b2c9      	uxtb	r1, r1
100010e4:	468c      	mov	ip, r1
100010e6:	4641      	mov	r1, r8
100010e8:	4660      	mov	r0, ip
100010ea:	7008      	strb	r0, [r1, #0]
100010ec:	1d39      	adds	r1, r7, #4
100010ee:	481e      	ldr	r0, [pc, #120]	; (10001168 <hardware_alarm_set_target+0xd8>)
100010f0:	0089      	lsls	r1, r1, #2
100010f2:	6365      	str	r5, [r4, #52]	; 0x34
100010f4:	510a      	str	r2, [r1, r4]
100010f6:	00b9      	lsls	r1, r7, #2
100010f8:	500b      	str	r3, [r1, r0]
100010fa:	6a21      	ldr	r1, [r4, #32]
100010fc:	2000      	movs	r0, #0
100010fe:	4229      	tst	r1, r5
10001100:	d019      	beq.n	10001136 <hardware_alarm_set_target+0xa6>
10001102:	6a61      	ldr	r1, [r4, #36]	; 0x24
10001104:	0008      	movs	r0, r1
10001106:	6aa6      	ldr	r6, [r4, #40]	; 0x28
10001108:	6a61      	ldr	r1, [r4, #36]	; 0x24
1000110a:	4281      	cmp	r1, r0
1000110c:	d1fa      	bne.n	10001104 <hardware_alarm_set_target+0x74>
1000110e:	428b      	cmp	r3, r1
10001110:	d819      	bhi.n	10001146 <hardware_alarm_set_target+0xb6>
10001112:	d101      	bne.n	10001118 <hardware_alarm_set_target+0x88>
10001114:	42b2      	cmp	r2, r6
10001116:	d816      	bhi.n	10001146 <hardware_alarm_set_target+0xb6>
10001118:	45cc      	cmp	ip, r9
1000111a:	d01d      	beq.n	10001158 <hardware_alarm_set_target+0xc8>
1000111c:	4b0f      	ldr	r3, [pc, #60]	; (1000115c <hardware_alarm_set_target+0xcc>)
1000111e:	201f      	movs	r0, #31
10001120:	621d      	str	r5, [r3, #32]
10001122:	635d      	str	r5, [r3, #52]	; 0x34
10001124:	2301      	movs	r3, #1
10001126:	4007      	ands	r7, r0
10001128:	40bb      	lsls	r3, r7
1000112a:	4a10      	ldr	r2, [pc, #64]	; (1000116c <hardware_alarm_set_target+0xdc>)
1000112c:	381e      	subs	r0, #30
1000112e:	6013      	str	r3, [r2, #0]
10001130:	4643      	mov	r3, r8
10001132:	464a      	mov	r2, r9
10001134:	701a      	strb	r2, [r3, #0]
10001136:	f3bf 8f5f 	dmb	sy
1000113a:	2200      	movs	r2, #0
1000113c:	4b08      	ldr	r3, [pc, #32]	; (10001160 <hardware_alarm_set_target+0xd0>)
1000113e:	601a      	str	r2, [r3, #0]
10001140:	f38a 8810 	msr	PRIMASK, sl
10001144:	e7b5      	b.n	100010b2 <hardware_alarm_set_target+0x22>
10001146:	2000      	movs	r0, #0
10001148:	f3bf 8f5f 	dmb	sy
1000114c:	2200      	movs	r2, #0
1000114e:	4b04      	ldr	r3, [pc, #16]	; (10001160 <hardware_alarm_set_target+0xd0>)
10001150:	601a      	str	r2, [r3, #0]
10001152:	f38a 8810 	msr	PRIMASK, sl
10001156:	e7ac      	b.n	100010b2 <hardware_alarm_set_target+0x22>
10001158:	2001      	movs	r0, #1
1000115a:	e7ec      	b.n	10001136 <hardware_alarm_set_target+0xa6>
1000115c:	40054000 	.word	0x40054000
10001160:	d0000128 	.word	0xd0000128
10001164:	2000084b 	.word	0x2000084b
10001168:	20000838 	.word	0x20000838
1000116c:	e000e280 	.word	0xe000e280

10001170 <hardware_alarm_cancel>:
10001170:	f3ef 8c10 	mrs	ip, PRIMASK
10001174:	b672      	cpsid	i
10001176:	490a      	ldr	r1, [pc, #40]	; (100011a0 <hardware_alarm_cancel+0x30>)
10001178:	680b      	ldr	r3, [r1, #0]
1000117a:	2b00      	cmp	r3, #0
1000117c:	d0fc      	beq.n	10001178 <hardware_alarm_cancel+0x8>
1000117e:	f3bf 8f5f 	dmb	sy
10001182:	2301      	movs	r3, #1
10001184:	4083      	lsls	r3, r0
10001186:	4a07      	ldr	r2, [pc, #28]	; (100011a4 <hardware_alarm_cancel+0x34>)
10001188:	4807      	ldr	r0, [pc, #28]	; (100011a8 <hardware_alarm_cancel+0x38>)
1000118a:	6213      	str	r3, [r2, #32]
1000118c:	7802      	ldrb	r2, [r0, #0]
1000118e:	439a      	bics	r2, r3
10001190:	7002      	strb	r2, [r0, #0]
10001192:	f3bf 8f5f 	dmb	sy
10001196:	2300      	movs	r3, #0
10001198:	600b      	str	r3, [r1, #0]
1000119a:	f38c 8810 	msr	PRIMASK, ip
1000119e:	4770      	bx	lr
100011a0:	d0000128 	.word	0xd0000128
100011a4:	40054000 	.word	0x40054000
100011a8:	2000084b 	.word	0x2000084b

100011ac <lock_init>:
100011ac:	4b02      	ldr	r3, [pc, #8]	; (100011b8 <lock_init+0xc>)
100011ae:	469c      	mov	ip, r3
100011b0:	4461      	add	r1, ip
100011b2:	0089      	lsls	r1, r1, #2
100011b4:	6001      	str	r1, [r0, #0]
100011b6:	4770      	bx	lr
100011b8:	34000040 	.word	0x34000040

100011bc <mutex_init>:
100011bc:	b510      	push	{r4, lr}
100011be:	0004      	movs	r4, r0
100011c0:	f7ff fae4 	bl	1000078c <next_striped_spin_lock_num>
100011c4:	0001      	movs	r1, r0
100011c6:	0020      	movs	r0, r4
100011c8:	f7ff fff0 	bl	100011ac <lock_init>
100011cc:	23ff      	movs	r3, #255	; 0xff
100011ce:	7123      	strb	r3, [r4, #4]
100011d0:	f3bf 8f5f 	dmb	sy
100011d4:	bd10      	pop	{r4, pc}
100011d6:	46c0      	nop			; (mov r8, r8)

100011d8 <recursive_mutex_init>:
100011d8:	b510      	push	{r4, lr}
100011da:	0004      	movs	r4, r0
100011dc:	f7ff fad6 	bl	1000078c <next_striped_spin_lock_num>
100011e0:	0001      	movs	r1, r0
100011e2:	0020      	movs	r0, r4
100011e4:	f7ff ffe2 	bl	100011ac <lock_init>
100011e8:	23ff      	movs	r3, #255	; 0xff
100011ea:	80a3      	strh	r3, [r4, #4]
100011ec:	f3bf 8f5f 	dmb	sy
100011f0:	bd10      	pop	{r4, pc}
100011f2:	46c0      	nop			; (mov r8, r8)

100011f4 <ph_merge_nodes>:
100011f4:	b570      	push	{r4, r5, r6, lr}
100011f6:	0005      	movs	r5, r0
100011f8:	0014      	movs	r4, r2
100011fa:	0016      	movs	r6, r2
100011fc:	2900      	cmp	r1, #0
100011fe:	d015      	beq.n	1000122c <ph_merge_nodes+0x38>
10001200:	000c      	movs	r4, r1
10001202:	2a00      	cmp	r2, #0
10001204:	d012      	beq.n	1000122c <ph_merge_nodes+0x38>
10001206:	6880      	ldr	r0, [r0, #8]
10001208:	686b      	ldr	r3, [r5, #4]
1000120a:	4798      	blx	r3
1000120c:	6829      	ldr	r1, [r5, #0]
1000120e:	2800      	cmp	r0, #0
10001210:	d00e      	beq.n	10001230 <ph_merge_nodes+0x3c>
10001212:	0073      	lsls	r3, r6, #1
10001214:	199b      	adds	r3, r3, r6
10001216:	0062      	lsls	r2, r4, #1
10001218:	3b03      	subs	r3, #3
1000121a:	1912      	adds	r2, r2, r4
1000121c:	18cb      	adds	r3, r1, r3
1000121e:	3a03      	subs	r2, #3
10001220:	709c      	strb	r4, [r3, #2]
10001222:	1888      	adds	r0, r1, r2
10001224:	5c8a      	ldrb	r2, [r1, r2]
10001226:	2a00      	cmp	r2, #0
10001228:	d115      	bne.n	10001256 <ph_merge_nodes+0x62>
1000122a:	7006      	strb	r6, [r0, #0]
1000122c:	0020      	movs	r0, r4
1000122e:	bd70      	pop	{r4, r5, r6, pc}
10001230:	0063      	lsls	r3, r4, #1
10001232:	191b      	adds	r3, r3, r4
10001234:	0072      	lsls	r2, r6, #1
10001236:	3b03      	subs	r3, #3
10001238:	1992      	adds	r2, r2, r6
1000123a:	18cb      	adds	r3, r1, r3
1000123c:	3a03      	subs	r2, #3
1000123e:	709e      	strb	r6, [r3, #2]
10001240:	1888      	adds	r0, r1, r2
10001242:	5c8a      	ldrb	r2, [r1, r2]
10001244:	2a00      	cmp	r2, #0
10001246:	d102      	bne.n	1000124e <ph_merge_nodes+0x5a>
10001248:	7004      	strb	r4, [r0, #0]
1000124a:	0034      	movs	r4, r6
1000124c:	e7ee      	b.n	1000122c <ph_merge_nodes+0x38>
1000124e:	705a      	strb	r2, [r3, #1]
10001250:	7004      	strb	r4, [r0, #0]
10001252:	0034      	movs	r4, r6
10001254:	e7ea      	b.n	1000122c <ph_merge_nodes+0x38>
10001256:	705a      	strb	r2, [r3, #1]
10001258:	7006      	strb	r6, [r0, #0]
1000125a:	e7e7      	b.n	1000122c <ph_merge_nodes+0x38>

1000125c <ph_post_alloc_init>:
1000125c:	b530      	push	{r4, r5, lr}
1000125e:	6083      	str	r3, [r0, #8]
10001260:	2300      	movs	r3, #0
10001262:	b2cc      	uxtb	r4, r1
10001264:	7343      	strb	r3, [r0, #13]
10001266:	3301      	adds	r3, #1
10001268:	7304      	strb	r4, [r0, #12]
1000126a:	6042      	str	r2, [r0, #4]
1000126c:	7383      	strb	r3, [r0, #14]
1000126e:	73c4      	strb	r4, [r0, #15]
10001270:	000d      	movs	r5, r1
10001272:	6800      	ldr	r0, [r0, #0]
10001274:	2c01      	cmp	r4, #1
10001276:	d906      	bls.n	10001286 <ph_post_alloc_init+0x2a>
10001278:	1c42      	adds	r2, r0, #1
1000127a:	3301      	adds	r3, #1
1000127c:	b2db      	uxtb	r3, r3
1000127e:	7013      	strb	r3, [r2, #0]
10001280:	3203      	adds	r2, #3
10001282:	429c      	cmp	r4, r3
10001284:	d1f9      	bne.n	1000127a <ph_post_alloc_init+0x1e>
10001286:	21ff      	movs	r1, #255	; 0xff
10001288:	4029      	ands	r1, r5
1000128a:	004b      	lsls	r3, r1, #1
1000128c:	1859      	adds	r1, r3, r1
1000128e:	2300      	movs	r3, #0
10001290:	1840      	adds	r0, r0, r1
10001292:	3803      	subs	r0, #3
10001294:	7043      	strb	r3, [r0, #1]
10001296:	bd30      	pop	{r4, r5, pc}

10001298 <ph_merge_two_pass>:
10001298:	b5f8      	push	{r3, r4, r5, r6, r7, lr}
1000129a:	46ce      	mov	lr, r9
1000129c:	4647      	mov	r7, r8
1000129e:	0006      	movs	r6, r0
100012a0:	000c      	movs	r4, r1
100012a2:	b580      	push	{r7, lr}
100012a4:	2900      	cmp	r1, #0
100012a6:	d007      	beq.n	100012b8 <ph_merge_two_pass+0x20>
100012a8:	004d      	lsls	r5, r1, #1
100012aa:	6803      	ldr	r3, [r0, #0]
100012ac:	186d      	adds	r5, r5, r1
100012ae:	3d03      	subs	r5, #3
100012b0:	195a      	adds	r2, r3, r5
100012b2:	7857      	ldrb	r7, [r2, #1]
100012b4:	2f00      	cmp	r7, #0
100012b6:	d104      	bne.n	100012c2 <ph_merge_two_pass+0x2a>
100012b8:	0020      	movs	r0, r4
100012ba:	bcc0      	pop	{r6, r7}
100012bc:	46b9      	mov	r9, r7
100012be:	46b0      	mov	r8, r6
100012c0:	bdf8      	pop	{r3, r4, r5, r6, r7, pc}
100012c2:	0079      	lsls	r1, r7, #1
100012c4:	19c9      	adds	r1, r1, r7
100012c6:	3903      	subs	r1, #3
100012c8:	4688      	mov	r8, r1
100012ca:	4443      	add	r3, r8
100012cc:	7859      	ldrb	r1, [r3, #1]
100012ce:	4689      	mov	r9, r1
100012d0:	2100      	movs	r1, #0
100012d2:	7059      	strb	r1, [r3, #1]
100012d4:	7051      	strb	r1, [r2, #1]
100012d6:	6873      	ldr	r3, [r6, #4]
100012d8:	003a      	movs	r2, r7
100012da:	0021      	movs	r1, r4
100012dc:	6880      	ldr	r0, [r0, #8]
100012de:	4798      	blx	r3
100012e0:	6833      	ldr	r3, [r6, #0]
100012e2:	2800      	cmp	r0, #0
100012e4:	d014      	beq.n	10001310 <ph_merge_two_pass+0x78>
100012e6:	4642      	mov	r2, r8
100012e8:	189a      	adds	r2, r3, r2
100012ea:	7094      	strb	r4, [r2, #2]
100012ec:	1959      	adds	r1, r3, r5
100012ee:	5d5b      	ldrb	r3, [r3, r5]
100012f0:	2b00      	cmp	r3, #0
100012f2:	d000      	beq.n	100012f6 <ph_merge_two_pass+0x5e>
100012f4:	7053      	strb	r3, [r2, #1]
100012f6:	700f      	strb	r7, [r1, #0]
100012f8:	0027      	movs	r7, r4
100012fa:	4649      	mov	r1, r9
100012fc:	0030      	movs	r0, r6
100012fe:	f7ff ffcb 	bl	10001298 <ph_merge_two_pass>
10001302:	0039      	movs	r1, r7
10001304:	0002      	movs	r2, r0
10001306:	0030      	movs	r0, r6
10001308:	f7ff ff74 	bl	100011f4 <ph_merge_nodes>
1000130c:	0004      	movs	r4, r0
1000130e:	e7d3      	b.n	100012b8 <ph_merge_two_pass+0x20>
10001310:	4642      	mov	r2, r8
10001312:	4641      	mov	r1, r8
10001314:	195d      	adds	r5, r3, r5
10001316:	70af      	strb	r7, [r5, #2]
10001318:	189a      	adds	r2, r3, r2
1000131a:	5c5b      	ldrb	r3, [r3, r1]
1000131c:	2b00      	cmp	r3, #0
1000131e:	d000      	beq.n	10001322 <ph_merge_two_pass+0x8a>
10001320:	706b      	strb	r3, [r5, #1]
10001322:	7014      	strb	r4, [r2, #0]
10001324:	e7e9      	b.n	100012fa <ph_merge_two_pass+0x62>
10001326:	46c0      	nop			; (mov r8, r8)

10001328 <ph_remove_any_head>:
10001328:	b5f0      	push	{r4, r5, r6, r7, lr}
1000132a:	4657      	mov	r7, sl
1000132c:	4645      	mov	r5, r8
1000132e:	46de      	mov	lr, fp
10001330:	464e      	mov	r6, r9
10001332:	b5e0      	push	{r5, r6, r7, lr}
10001334:	000d      	movs	r5, r1
10001336:	006b      	lsls	r3, r5, #1
10001338:	6801      	ldr	r1, [r0, #0]
1000133a:	195b      	adds	r3, r3, r5
1000133c:	1edf      	subs	r7, r3, #3
1000133e:	0004      	movs	r4, r0
10001340:	5dc8      	ldrb	r0, [r1, r7]
10001342:	b083      	sub	sp, #12
10001344:	9201      	str	r2, [sp, #4]
10001346:	19ca      	adds	r2, r1, r7
10001348:	2800      	cmp	r0, #0
1000134a:	d04c      	beq.n	100013e6 <ph_remove_any_head+0xbe>
1000134c:	0043      	lsls	r3, r0, #1
1000134e:	181b      	adds	r3, r3, r0
10001350:	3b03      	subs	r3, #3
10001352:	18cb      	adds	r3, r1, r3
10001354:	785e      	ldrb	r6, [r3, #1]
10001356:	46b4      	mov	ip, r6
10001358:	2e00      	cmp	r6, #0
1000135a:	d116      	bne.n	1000138a <ph_remove_any_head+0x62>
1000135c:	9e01      	ldr	r6, [sp, #4]
1000135e:	2e00      	cmp	r6, #0
10001360:	d03e      	beq.n	100013e0 <ph_remove_any_head+0xb8>
10001362:	7be6      	ldrb	r6, [r4, #15]
10001364:	2e00      	cmp	r6, #0
10001366:	d004      	beq.n	10001372 <ph_remove_any_head+0x4a>
10001368:	0073      	lsls	r3, r6, #1
1000136a:	199b      	adds	r3, r3, r6
1000136c:	18cb      	adds	r3, r1, r3
1000136e:	3b03      	subs	r3, #3
10001370:	705d      	strb	r5, [r3, #1]
10001372:	73e5      	strb	r5, [r4, #15]
10001374:	2800      	cmp	r0, #0
10001376:	d12f      	bne.n	100013d8 <ph_remove_any_head+0xb0>
10001378:	2300      	movs	r3, #0
1000137a:	7053      	strb	r3, [r2, #1]
1000137c:	b003      	add	sp, #12
1000137e:	bcf0      	pop	{r4, r5, r6, r7}
10001380:	46bb      	mov	fp, r7
10001382:	46b2      	mov	sl, r6
10001384:	46a9      	mov	r9, r5
10001386:	46a0      	mov	r8, r4
10001388:	bdf0      	pop	{r4, r5, r6, r7, pc}
1000138a:	0072      	lsls	r2, r6, #1
1000138c:	4462      	add	r2, ip
1000138e:	3a03      	subs	r2, #3
10001390:	1889      	adds	r1, r1, r2
10001392:	784a      	ldrb	r2, [r1, #1]
10001394:	4690      	mov	r8, r2
10001396:	2200      	movs	r2, #0
10001398:	704a      	strb	r2, [r1, #1]
1000139a:	4691      	mov	r9, r2
1000139c:	705a      	strb	r2, [r3, #1]
1000139e:	0001      	movs	r1, r0
100013a0:	0032      	movs	r2, r6
100013a2:	0020      	movs	r0, r4
100013a4:	f7ff ff26 	bl	100011f4 <ph_merge_nodes>
100013a8:	4643      	mov	r3, r8
100013aa:	4682      	mov	sl, r0
100013ac:	2b00      	cmp	r3, #0
100013ae:	d007      	beq.n	100013c0 <ph_remove_any_head+0x98>
100013b0:	005b      	lsls	r3, r3, #1
100013b2:	6821      	ldr	r1, [r4, #0]
100013b4:	4443      	add	r3, r8
100013b6:	3b03      	subs	r3, #3
100013b8:	18cb      	adds	r3, r1, r3
100013ba:	785a      	ldrb	r2, [r3, #1]
100013bc:	2a00      	cmp	r2, #0
100013be:	d116      	bne.n	100013ee <ph_remove_any_head+0xc6>
100013c0:	4642      	mov	r2, r8
100013c2:	4651      	mov	r1, sl
100013c4:	0020      	movs	r0, r4
100013c6:	f7ff ff15 	bl	100011f4 <ph_merge_nodes>
100013ca:	6821      	ldr	r1, [r4, #0]
100013cc:	9b01      	ldr	r3, [sp, #4]
100013ce:	19ca      	adds	r2, r1, r7
100013d0:	2b00      	cmp	r3, #0
100013d2:	d1c6      	bne.n	10001362 <ph_remove_any_head+0x3a>
100013d4:	2800      	cmp	r0, #0
100013d6:	d0cf      	beq.n	10001378 <ph_remove_any_head+0x50>
100013d8:	0043      	lsls	r3, r0, #1
100013da:	181b      	adds	r3, r3, r0
100013dc:	3b03      	subs	r3, #3
100013de:	18cb      	adds	r3, r1, r3
100013e0:	2100      	movs	r1, #0
100013e2:	7099      	strb	r1, [r3, #2]
100013e4:	e7c8      	b.n	10001378 <ph_remove_any_head+0x50>
100013e6:	9b01      	ldr	r3, [sp, #4]
100013e8:	2b00      	cmp	r3, #0
100013ea:	d1ba      	bne.n	10001362 <ph_remove_any_head+0x3a>
100013ec:	e7c4      	b.n	10001378 <ph_remove_any_head+0x50>
100013ee:	0050      	lsls	r0, r2, #1
100013f0:	1880      	adds	r0, r0, r2
100013f2:	3803      	subs	r0, #3
100013f4:	1809      	adds	r1, r1, r0
100013f6:	7848      	ldrb	r0, [r1, #1]
100013f8:	4683      	mov	fp, r0
100013fa:	4648      	mov	r0, r9
100013fc:	7048      	strb	r0, [r1, #1]
100013fe:	7058      	strb	r0, [r3, #1]
10001400:	4641      	mov	r1, r8
10001402:	0020      	movs	r0, r4
10001404:	f7ff fef6 	bl	100011f4 <ph_merge_nodes>
10001408:	4659      	mov	r1, fp
1000140a:	4680      	mov	r8, r0
1000140c:	0020      	movs	r0, r4
1000140e:	f7ff ff43 	bl	10001298 <ph_merge_two_pass>
10001412:	4641      	mov	r1, r8
10001414:	0002      	movs	r2, r0
10001416:	0020      	movs	r0, r4
10001418:	f7ff feec 	bl	100011f4 <ph_merge_nodes>
1000141c:	4680      	mov	r8, r0
1000141e:	e7cf      	b.n	100013c0 <ph_remove_any_head+0x98>

10001420 <ph_remove_head>:
10001420:	b5f0      	push	{r4, r5, r6, r7, lr}
10001422:	4657      	mov	r7, sl
10001424:	4645      	mov	r5, r8
10001426:	46de      	mov	lr, fp
10001428:	464e      	mov	r6, r9
1000142a:	b5e0      	push	{r5, r6, r7, lr}
1000142c:	b083      	sub	sp, #12
1000142e:	9101      	str	r1, [sp, #4]
10001430:	7b45      	ldrb	r5, [r0, #13]
10001432:	0004      	movs	r4, r0
10001434:	006b      	lsls	r3, r5, #1
10001436:	6800      	ldr	r0, [r0, #0]
10001438:	195b      	adds	r3, r3, r5
1000143a:	1edf      	subs	r7, r3, #3
1000143c:	5dc1      	ldrb	r1, [r0, r7]
1000143e:	19c2      	adds	r2, r0, r7
10001440:	2900      	cmp	r1, #0
10001442:	d04e      	beq.n	100014e2 <ph_remove_head+0xc2>
10001444:	004b      	lsls	r3, r1, #1
10001446:	185b      	adds	r3, r3, r1
10001448:	3b03      	subs	r3, #3
1000144a:	18c3      	adds	r3, r0, r3
1000144c:	785e      	ldrb	r6, [r3, #1]
1000144e:	46b4      	mov	ip, r6
10001450:	2e00      	cmp	r6, #0
10001452:	d118      	bne.n	10001486 <ph_remove_head+0x66>
10001454:	9e01      	ldr	r6, [sp, #4]
10001456:	2e00      	cmp	r6, #0
10001458:	d040      	beq.n	100014dc <ph_remove_head+0xbc>
1000145a:	7be6      	ldrb	r6, [r4, #15]
1000145c:	2e00      	cmp	r6, #0
1000145e:	d004      	beq.n	1000146a <ph_remove_head+0x4a>
10001460:	0073      	lsls	r3, r6, #1
10001462:	199b      	adds	r3, r3, r6
10001464:	18c3      	adds	r3, r0, r3
10001466:	3b03      	subs	r3, #3
10001468:	705d      	strb	r5, [r3, #1]
1000146a:	73e5      	strb	r5, [r4, #15]
1000146c:	2900      	cmp	r1, #0
1000146e:	d131      	bne.n	100014d4 <ph_remove_head+0xb4>
10001470:	2300      	movs	r3, #0
10001472:	0028      	movs	r0, r5
10001474:	7053      	strb	r3, [r2, #1]
10001476:	7361      	strb	r1, [r4, #13]
10001478:	b003      	add	sp, #12
1000147a:	bcf0      	pop	{r4, r5, r6, r7}
1000147c:	46bb      	mov	fp, r7
1000147e:	46b2      	mov	sl, r6
10001480:	46a9      	mov	r9, r5
10001482:	46a0      	mov	r8, r4
10001484:	bdf0      	pop	{r4, r5, r6, r7, pc}
10001486:	0072      	lsls	r2, r6, #1
10001488:	4462      	add	r2, ip
1000148a:	3a03      	subs	r2, #3
1000148c:	1880      	adds	r0, r0, r2
1000148e:	7842      	ldrb	r2, [r0, #1]
10001490:	4690      	mov	r8, r2
10001492:	2200      	movs	r2, #0
10001494:	7042      	strb	r2, [r0, #1]
10001496:	4691      	mov	r9, r2
10001498:	705a      	strb	r2, [r3, #1]
1000149a:	0020      	movs	r0, r4
1000149c:	0032      	movs	r2, r6
1000149e:	f7ff fea9 	bl	100011f4 <ph_merge_nodes>
100014a2:	4643      	mov	r3, r8
100014a4:	4682      	mov	sl, r0
100014a6:	2b00      	cmp	r3, #0
100014a8:	d007      	beq.n	100014ba <ph_remove_head+0x9a>
100014aa:	005b      	lsls	r3, r3, #1
100014ac:	6821      	ldr	r1, [r4, #0]
100014ae:	4443      	add	r3, r8
100014b0:	3b03      	subs	r3, #3
100014b2:	18cb      	adds	r3, r1, r3
100014b4:	785a      	ldrb	r2, [r3, #1]
100014b6:	2a00      	cmp	r2, #0
100014b8:	d117      	bne.n	100014ea <ph_remove_head+0xca>
100014ba:	4642      	mov	r2, r8
100014bc:	4651      	mov	r1, sl
100014be:	0020      	movs	r0, r4
100014c0:	f7ff fe98 	bl	100011f4 <ph_merge_nodes>
100014c4:	9b01      	ldr	r3, [sp, #4]
100014c6:	0001      	movs	r1, r0
100014c8:	6820      	ldr	r0, [r4, #0]
100014ca:	19c2      	adds	r2, r0, r7
100014cc:	2b00      	cmp	r3, #0
100014ce:	d1c4      	bne.n	1000145a <ph_remove_head+0x3a>
100014d0:	2900      	cmp	r1, #0
100014d2:	d0cd      	beq.n	10001470 <ph_remove_head+0x50>
100014d4:	004b      	lsls	r3, r1, #1
100014d6:	185b      	adds	r3, r3, r1
100014d8:	3b03      	subs	r3, #3
100014da:	18c3      	adds	r3, r0, r3
100014dc:	2000      	movs	r0, #0
100014de:	7098      	strb	r0, [r3, #2]
100014e0:	e7c6      	b.n	10001470 <ph_remove_head+0x50>
100014e2:	9b01      	ldr	r3, [sp, #4]
100014e4:	2b00      	cmp	r3, #0
100014e6:	d1b8      	bne.n	1000145a <ph_remove_head+0x3a>
100014e8:	e7c2      	b.n	10001470 <ph_remove_head+0x50>
100014ea:	0050      	lsls	r0, r2, #1
100014ec:	1880      	adds	r0, r0, r2
100014ee:	3803      	subs	r0, #3
100014f0:	1809      	adds	r1, r1, r0
100014f2:	7848      	ldrb	r0, [r1, #1]
100014f4:	4683      	mov	fp, r0
100014f6:	4648      	mov	r0, r9
100014f8:	7048      	strb	r0, [r1, #1]
100014fa:	7058      	strb	r0, [r3, #1]
100014fc:	4641      	mov	r1, r8
100014fe:	0020      	movs	r0, r4
10001500:	f7ff fe78 	bl	100011f4 <ph_merge_nodes>
10001504:	4659      	mov	r1, fp
10001506:	4680      	mov	r8, r0
10001508:	0020      	movs	r0, r4
1000150a:	f7ff fec5 	bl	10001298 <ph_merge_two_pass>
1000150e:	4641      	mov	r1, r8
10001510:	0002      	movs	r2, r0
10001512:	0020      	movs	r0, r4
10001514:	f7ff fe6e 	bl	100011f4 <ph_merge_nodes>
10001518:	4680      	mov	r8, r0
1000151a:	e7ce      	b.n	100014ba <ph_remove_head+0x9a>

1000151c <ph_remove_and_free_node>:
1000151c:	b570      	push	{r4, r5, r6, lr}
1000151e:	0004      	movs	r4, r0
10001520:	2900      	cmp	r1, #0
10001522:	d02c      	beq.n	1000157e <ph_remove_and_free_node+0x62>
10001524:	7b43      	ldrb	r3, [r0, #13]
10001526:	428b      	cmp	r3, r1
10001528:	d02e      	beq.n	10001588 <ph_remove_and_free_node+0x6c>
1000152a:	6805      	ldr	r5, [r0, #0]
1000152c:	0048      	lsls	r0, r1, #1
1000152e:	1840      	adds	r0, r0, r1
10001530:	3803      	subs	r0, #3
10001532:	1828      	adds	r0, r5, r0
10001534:	7882      	ldrb	r2, [r0, #2]
10001536:	2a00      	cmp	r2, #0
10001538:	d021      	beq.n	1000157e <ph_remove_and_free_node+0x62>
1000153a:	0053      	lsls	r3, r2, #1
1000153c:	189b      	adds	r3, r3, r2
1000153e:	3b03      	subs	r3, #3
10001540:	5cea      	ldrb	r2, [r5, r3]
10001542:	18ee      	adds	r6, r5, r3
10001544:	428a      	cmp	r2, r1
10001546:	d102      	bne.n	1000154e <ph_remove_and_free_node+0x32>
10001548:	e01b      	b.n	10001582 <ph_remove_and_free_node+0x66>
1000154a:	2a00      	cmp	r2, #0
1000154c:	d008      	beq.n	10001560 <ph_remove_and_free_node+0x44>
1000154e:	0053      	lsls	r3, r2, #1
10001550:	189b      	adds	r3, r3, r2
10001552:	3b03      	subs	r3, #3
10001554:	18eb      	adds	r3, r5, r3
10001556:	785a      	ldrb	r2, [r3, #1]
10001558:	428a      	cmp	r2, r1
1000155a:	d1f6      	bne.n	1000154a <ph_remove_and_free_node+0x2e>
1000155c:	7842      	ldrb	r2, [r0, #1]
1000155e:	705a      	strb	r2, [r3, #1]
10001560:	2300      	movs	r3, #0
10001562:	2201      	movs	r2, #1
10001564:	7083      	strb	r3, [r0, #2]
10001566:	7043      	strb	r3, [r0, #1]
10001568:	0020      	movs	r0, r4
1000156a:	f7ff fedd 	bl	10001328 <ph_remove_any_head>
1000156e:	7b61      	ldrb	r1, [r4, #13]
10001570:	0002      	movs	r2, r0
10001572:	0020      	movs	r0, r4
10001574:	f7ff fe3e 	bl	100011f4 <ph_merge_nodes>
10001578:	7360      	strb	r0, [r4, #13]
1000157a:	2001      	movs	r0, #1
1000157c:	e000      	b.n	10001580 <ph_remove_and_free_node+0x64>
1000157e:	2000      	movs	r0, #0
10001580:	bd70      	pop	{r4, r5, r6, pc}
10001582:	7843      	ldrb	r3, [r0, #1]
10001584:	7033      	strb	r3, [r6, #0]
10001586:	e7eb      	b.n	10001560 <ph_remove_and_free_node+0x44>
10001588:	2201      	movs	r2, #1
1000158a:	0019      	movs	r1, r3
1000158c:	f7ff fecc 	bl	10001328 <ph_remove_any_head>
10001590:	7360      	strb	r0, [r4, #13]
10001592:	2001      	movs	r0, #1
10001594:	e7f4      	b.n	10001580 <ph_remove_and_free_node+0x64>
10001596:	46c0      	nop			; (mov r8, r8)

10001598 <runtime_init>:
10001598:	4b2c      	ldr	r3, [pc, #176]	; (1000164c <runtime_init+0xb4>)
1000159a:	4a2d      	ldr	r2, [pc, #180]	; (10001650 <runtime_init+0xb8>)
1000159c:	b570      	push	{r4, r5, r6, lr}
1000159e:	601a      	str	r2, [r3, #0]
100015a0:	4a2c      	ldr	r2, [pc, #176]	; (10001654 <runtime_init+0xbc>)
100015a2:	4b2d      	ldr	r3, [pc, #180]	; (10001658 <runtime_init+0xc0>)
100015a4:	492d      	ldr	r1, [pc, #180]	; (1000165c <runtime_init+0xc4>)
100015a6:	601a      	str	r2, [r3, #0]
100015a8:	0014      	movs	r4, r2
100015aa:	688b      	ldr	r3, [r1, #8]
100015ac:	439c      	bics	r4, r3
100015ae:	d1fb      	bne.n	100015a8 <runtime_init+0x10>
100015b0:	4d2b      	ldr	r5, [pc, #172]	; (10001660 <runtime_init+0xc8>)
100015b2:	4e2c      	ldr	r6, [pc, #176]	; (10001664 <runtime_init+0xcc>)
100015b4:	42b5      	cmp	r5, r6
100015b6:	d208      	bcs.n	100015ca <runtime_init+0x32>
100015b8:	3e01      	subs	r6, #1
100015ba:	1b76      	subs	r6, r6, r5
100015bc:	08b6      	lsrs	r6, r6, #2
100015be:	cd08      	ldmia	r5!, {r3}
100015c0:	4798      	blx	r3
100015c2:	0023      	movs	r3, r4
100015c4:	3401      	adds	r4, #1
100015c6:	42b3      	cmp	r3, r6
100015c8:	d1f9      	bne.n	100015be <runtime_init+0x26>
100015ca:	f000 f87d 	bl	100016c8 <clocks_init>
100015ce:	4a26      	ldr	r2, [pc, #152]	; (10001668 <runtime_init+0xd0>)
100015d0:	4b21      	ldr	r3, [pc, #132]	; (10001658 <runtime_init+0xc0>)
100015d2:	601a      	str	r2, [r3, #0]
100015d4:	4a21      	ldr	r2, [pc, #132]	; (1000165c <runtime_init+0xc4>)
100015d6:	6893      	ldr	r3, [r2, #8]
100015d8:	43db      	mvns	r3, r3
100015da:	01db      	lsls	r3, r3, #7
100015dc:	09dd      	lsrs	r5, r3, #7
100015de:	2b00      	cmp	r3, #0
100015e0:	d1f9      	bne.n	100015d6 <runtime_init+0x3e>
100015e2:	2240      	movs	r2, #64	; 0x40
100015e4:	4b21      	ldr	r3, [pc, #132]	; (1000166c <runtime_init+0xd4>)
100015e6:	4c22      	ldr	r4, [pc, #136]	; (10001670 <runtime_init+0xd8>)
100015e8:	4e22      	ldr	r6, [pc, #136]	; (10001674 <runtime_init+0xdc>)
100015ea:	679a      	str	r2, [r3, #120]	; 0x78
100015ec:	675a      	str	r2, [r3, #116]	; 0x74
100015ee:	671a      	str	r2, [r3, #112]	; 0x70
100015f0:	66da      	str	r2, [r3, #108]	; 0x6c
100015f2:	42b4      	cmp	r4, r6
100015f4:	d208      	bcs.n	10001608 <runtime_init+0x70>
100015f6:	6823      	ldr	r3, [r4, #0]
100015f8:	0020      	movs	r0, r4
100015fa:	2b00      	cmp	r3, #0
100015fc:	d020      	beq.n	10001640 <runtime_init+0xa8>
100015fe:	3408      	adds	r4, #8
10001600:	f7ff fdea 	bl	100011d8 <recursive_mutex_init>
10001604:	42b4      	cmp	r4, r6
10001606:	d3f6      	bcc.n	100015f6 <runtime_init+0x5e>
10001608:	4e1b      	ldr	r6, [pc, #108]	; (10001678 <runtime_init+0xe0>)
1000160a:	4c1c      	ldr	r4, [pc, #112]	; (1000167c <runtime_init+0xe4>)
1000160c:	22c0      	movs	r2, #192	; 0xc0
1000160e:	68a1      	ldr	r1, [r4, #8]
10001610:	0030      	movs	r0, r6
10001612:	f000 fd59 	bl	100020c8 <__wrap___aeabi_memcpy>
10001616:	60a6      	str	r6, [r4, #8]
10001618:	f7ff f8aa 	bl	10000770 <spin_locks_reset>
1000161c:	f000 fb30 	bl	10001c80 <irq_init_priorities>
10001620:	f7ff fae4 	bl	10000bec <alarm_pool_init_default>
10001624:	4c16      	ldr	r4, [pc, #88]	; (10001680 <runtime_init+0xe8>)
10001626:	4e17      	ldr	r6, [pc, #92]	; (10001684 <runtime_init+0xec>)
10001628:	42b4      	cmp	r4, r6
1000162a:	d208      	bcs.n	1000163e <runtime_init+0xa6>
1000162c:	3e01      	subs	r6, #1
1000162e:	1b36      	subs	r6, r6, r4
10001630:	08b6      	lsrs	r6, r6, #2
10001632:	cc08      	ldmia	r4!, {r3}
10001634:	4798      	blx	r3
10001636:	002b      	movs	r3, r5
10001638:	3501      	adds	r5, #1
1000163a:	429e      	cmp	r6, r3
1000163c:	d1f9      	bne.n	10001632 <runtime_init+0x9a>
1000163e:	bd70      	pop	{r4, r5, r6, pc}
10001640:	3408      	adds	r4, #8
10001642:	f7ff fdbb 	bl	100011bc <mutex_init>
10001646:	42b4      	cmp	r4, r6
10001648:	d3d5      	bcc.n	100015f6 <runtime_init+0x5e>
1000164a:	e7dd      	b.n	10001608 <runtime_init+0x70>
1000164c:	4000e000 	.word	0x4000e000
10001650:	fefbcdbf 	.word	0xfefbcdbf
10001654:	003c7ffe 	.word	0x003c7ffe
10001658:	4000f000 	.word	0x4000f000
1000165c:	4000c000 	.word	0x4000c000
10001660:	20000358 	.word	0x20000358
10001664:	20000368 	.word	0x20000368
10001668:	01ffffff 	.word	0x01ffffff
1000166c:	4001f000 	.word	0x4001f000
10001670:	20000350 	.word	0x20000350
10001674:	20000358 	.word	0x20000358
10001678:	20000000 	.word	0x20000000
1000167c:	e000ed00 	.word	0xe000ed00
10001680:	20000368 	.word	0x20000368
10001684:	20000370 	.word	0x20000370

10001688 <exit>:
10001688:	be00      	bkpt	0x0000
1000168a:	e7fd      	b.n	10001688 <exit>

1000168c <panic>:
1000168c:	b40f      	push	{r0, r1, r2, r3}
1000168e:	b500      	push	{lr}
10001690:	4808      	ldr	r0, [pc, #32]	; (100016b4 <panic+0x28>)
10001692:	b083      	sub	sp, #12
10001694:	f000 fe4e 	bl	10002334 <__wrap_puts>
10001698:	9b04      	ldr	r3, [sp, #16]
1000169a:	2b00      	cmp	r3, #0
1000169c:	d007      	beq.n	100016ae <panic+0x22>
1000169e:	a905      	add	r1, sp, #20
100016a0:	0018      	movs	r0, r3
100016a2:	9101      	str	r1, [sp, #4]
100016a4:	f000 fb76 	bl	10001d94 <weak_raw_vprintf>
100016a8:	4803      	ldr	r0, [pc, #12]	; (100016b8 <panic+0x2c>)
100016aa:	f000 fe43 	bl	10002334 <__wrap_puts>
100016ae:	be00      	bkpt	0x0000
100016b0:	e7fd      	b.n	100016ae <panic+0x22>
100016b2:	46c0      	nop			; (mov r8, r8)
100016b4:	10002690 	.word	0x10002690
100016b8:	100026a0 	.word	0x100026a0

100016bc <hard_assertion_failure>:
100016bc:	b510      	push	{r4, lr}
100016be:	4801      	ldr	r0, [pc, #4]	; (100016c4 <hard_assertion_failure+0x8>)
100016c0:	f7ff ffe4 	bl	1000168c <panic>
100016c4:	100026a4 	.word	0x100026a4

100016c8 <clocks_init>:
100016c8:	b530      	push	{r4, r5, lr}
100016ca:	200c      	movs	r0, #12
100016cc:	b083      	sub	sp, #12
100016ce:	f000 fb3d 	bl	10001d4c <watchdog_start_tick>
100016d2:	f7ff f845 	bl	10000760 <running_on_fpga>
100016d6:	2800      	cmp	r0, #0
100016d8:	d00e      	beq.n	100016f8 <clocks_init+0x30>
100016da:	4b94      	ldr	r3, [pc, #592]	; (1000192c <clocks_init+0x264>)
100016dc:	4a94      	ldr	r2, [pc, #592]	; (10001930 <clocks_init+0x268>)
100016de:	601a      	str	r2, [r3, #0]
100016e0:	605a      	str	r2, [r3, #4]
100016e2:	609a      	str	r2, [r3, #8]
100016e4:	60da      	str	r2, [r3, #12]
100016e6:	611a      	str	r2, [r3, #16]
100016e8:	615a      	str	r2, [r3, #20]
100016ea:	619a      	str	r2, [r3, #24]
100016ec:	61da      	str	r2, [r3, #28]
100016ee:	621a      	str	r2, [r3, #32]
100016f0:	4a90      	ldr	r2, [pc, #576]	; (10001934 <clocks_init+0x26c>)
100016f2:	625a      	str	r2, [r3, #36]	; 0x24
100016f4:	b003      	add	sp, #12
100016f6:	bd30      	pop	{r4, r5, pc}
100016f8:	4c8f      	ldr	r4, [pc, #572]	; (10001938 <clocks_init+0x270>)
100016fa:	67a0      	str	r0, [r4, #120]	; 0x78
100016fc:	f000 fb2e 	bl	10001d5c <xosc_init>
10001700:	2201      	movs	r2, #1
10001702:	4b8e      	ldr	r3, [pc, #568]	; (1000193c <clocks_init+0x274>)
10001704:	601a      	str	r2, [r3, #0]
10001706:	6c63      	ldr	r3, [r4, #68]	; 0x44
10001708:	2b01      	cmp	r3, #1
1000170a:	d1fc      	bne.n	10001706 <clocks_init+0x3e>
1000170c:	2203      	movs	r2, #3
1000170e:	4b8c      	ldr	r3, [pc, #560]	; (10001940 <clocks_init+0x278>)
10001710:	601a      	str	r2, [r3, #0]
10001712:	4a89      	ldr	r2, [pc, #548]	; (10001938 <clocks_init+0x270>)
10001714:	6b93      	ldr	r3, [r2, #56]	; 0x38
10001716:	2b01      	cmp	r3, #1
10001718:	d1fc      	bne.n	10001714 <clocks_init+0x4c>
1000171a:	2402      	movs	r4, #2
1000171c:	2101      	movs	r1, #1
1000171e:	4a89      	ldr	r2, [pc, #548]	; (10001944 <clocks_init+0x27c>)
10001720:	4889      	ldr	r0, [pc, #548]	; (10001948 <clocks_init+0x280>)
10001722:	3305      	adds	r3, #5
10001724:	9400      	str	r4, [sp, #0]
10001726:	f000 fabd 	bl	10001ca4 <pll_init>
1000172a:	2305      	movs	r3, #5
1000172c:	4a87      	ldr	r2, [pc, #540]	; (1000194c <clocks_init+0x284>)
1000172e:	2101      	movs	r1, #1
10001730:	4887      	ldr	r0, [pc, #540]	; (10001950 <clocks_init+0x288>)
10001732:	9400      	str	r4, [sp, #0]
10001734:	f000 fab6 	bl	10001ca4 <pll_init>
10001738:	4b86      	ldr	r3, [pc, #536]	; (10001954 <clocks_init+0x28c>)
1000173a:	685a      	ldr	r2, [r3, #4]
1000173c:	2aff      	cmp	r2, #255	; 0xff
1000173e:	d802      	bhi.n	10001746 <clocks_init+0x7e>
10001740:	2280      	movs	r2, #128	; 0x80
10001742:	0052      	lsls	r2, r2, #1
10001744:	605a      	str	r2, [r3, #4]
10001746:	2280      	movs	r2, #128	; 0x80
10001748:	4c78      	ldr	r4, [pc, #480]	; (1000192c <clocks_init+0x264>)
1000174a:	4b7d      	ldr	r3, [pc, #500]	; (10001940 <clocks_init+0x278>)
1000174c:	6921      	ldr	r1, [r4, #16]
1000174e:	0112      	lsls	r2, r2, #4
10001750:	4d80      	ldr	r5, [pc, #512]	; (10001954 <clocks_init+0x28c>)
10001752:	601a      	str	r2, [r3, #0]
10001754:	2900      	cmp	r1, #0
10001756:	d005      	beq.n	10001764 <clocks_init+0x9c>
10001758:	6960      	ldr	r0, [r4, #20]
1000175a:	f000 fb6d 	bl	10001e38 <__wrap___aeabi_uidiv>
1000175e:	3001      	adds	r0, #1
10001760:	3801      	subs	r0, #1
10001762:	d1fd      	bne.n	10001760 <clocks_init+0x98>
10001764:	21e0      	movs	r1, #224	; 0xe0
10001766:	4b7b      	ldr	r3, [pc, #492]	; (10001954 <clocks_init+0x28c>)
10001768:	2002      	movs	r0, #2
1000176a:	681a      	ldr	r2, [r3, #0]
1000176c:	4011      	ands	r1, r2
1000176e:	2280      	movs	r2, #128	; 0x80
10001770:	0152      	lsls	r2, r2, #5
10001772:	432a      	orrs	r2, r5
10001774:	6011      	str	r1, [r2, #0]
10001776:	6819      	ldr	r1, [r3, #0]
10001778:	4048      	eors	r0, r1
1000177a:	2103      	movs	r1, #3
1000177c:	4001      	ands	r1, r0
1000177e:	6011      	str	r1, [r2, #0]
10001780:	2104      	movs	r1, #4
10001782:	689a      	ldr	r2, [r3, #8]
10001784:	4211      	tst	r1, r2
10001786:	d0fc      	beq.n	10001782 <clocks_init+0xba>
10001788:	2280      	movs	r2, #128	; 0x80
1000178a:	2180      	movs	r1, #128	; 0x80
1000178c:	0192      	lsls	r2, r2, #6
1000178e:	432a      	orrs	r2, r5
10001790:	0109      	lsls	r1, r1, #4
10001792:	6011      	str	r1, [r2, #0]
10001794:	2280      	movs	r2, #128	; 0x80
10001796:	0052      	lsls	r2, r2, #1
10001798:	605a      	str	r2, [r3, #4]
1000179a:	4b6f      	ldr	r3, [pc, #444]	; (10001958 <clocks_init+0x290>)
1000179c:	6123      	str	r3, [r4, #16]
1000179e:	4b6f      	ldr	r3, [pc, #444]	; (1000195c <clocks_init+0x294>)
100017a0:	6859      	ldr	r1, [r3, #4]
100017a2:	29ff      	cmp	r1, #255	; 0xff
100017a4:	d800      	bhi.n	100017a8 <clocks_init+0xe0>
100017a6:	605a      	str	r2, [r3, #4]
100017a8:	2103      	movs	r1, #3
100017aa:	4a64      	ldr	r2, [pc, #400]	; (1000193c <clocks_init+0x274>)
100017ac:	4b6b      	ldr	r3, [pc, #428]	; (1000195c <clocks_init+0x294>)
100017ae:	6011      	str	r1, [r2, #0]
100017b0:	3902      	subs	r1, #2
100017b2:	689a      	ldr	r2, [r3, #8]
100017b4:	4211      	tst	r1, r2
100017b6:	d0fc      	beq.n	100017b2 <clocks_init+0xea>
100017b8:	20e0      	movs	r0, #224	; 0xe0
100017ba:	681a      	ldr	r2, [r3, #0]
100017bc:	4010      	ands	r0, r2
100017be:	2280      	movs	r2, #128	; 0x80
100017c0:	0152      	lsls	r2, r2, #5
100017c2:	431a      	orrs	r2, r3
100017c4:	6010      	str	r0, [r2, #0]
100017c6:	6818      	ldr	r0, [r3, #0]
100017c8:	4048      	eors	r0, r1
100017ca:	2103      	movs	r1, #3
100017cc:	4001      	ands	r1, r0
100017ce:	2002      	movs	r0, #2
100017d0:	6011      	str	r1, [r2, #0]
100017d2:	4962      	ldr	r1, [pc, #392]	; (1000195c <clocks_init+0x294>)
100017d4:	688a      	ldr	r2, [r1, #8]
100017d6:	4210      	tst	r0, r2
100017d8:	d0fc      	beq.n	100017d4 <clocks_init+0x10c>
100017da:	2280      	movs	r2, #128	; 0x80
100017dc:	0192      	lsls	r2, r2, #6
100017de:	4313      	orrs	r3, r2
100017e0:	2280      	movs	r2, #128	; 0x80
100017e2:	0112      	lsls	r2, r2, #4
100017e4:	601a      	str	r2, [r3, #0]
100017e6:	2280      	movs	r2, #128	; 0x80
100017e8:	4b5d      	ldr	r3, [pc, #372]	; (10001960 <clocks_init+0x298>)
100017ea:	0052      	lsls	r2, r2, #1
100017ec:	604a      	str	r2, [r1, #4]
100017ee:	6163      	str	r3, [r4, #20]
100017f0:	4b5c      	ldr	r3, [pc, #368]	; (10001964 <clocks_init+0x29c>)
100017f2:	6859      	ldr	r1, [r3, #4]
100017f4:	29ff      	cmp	r1, #255	; 0xff
100017f6:	d800      	bhi.n	100017fa <clocks_init+0x132>
100017f8:	605a      	str	r2, [r3, #4]
100017fa:	2280      	movs	r2, #128	; 0x80
100017fc:	4b5a      	ldr	r3, [pc, #360]	; (10001968 <clocks_init+0x2a0>)
100017fe:	69e1      	ldr	r1, [r4, #28]
10001800:	0112      	lsls	r2, r2, #4
10001802:	4d58      	ldr	r5, [pc, #352]	; (10001964 <clocks_init+0x29c>)
10001804:	601a      	str	r2, [r3, #0]
10001806:	2900      	cmp	r1, #0
10001808:	d005      	beq.n	10001816 <clocks_init+0x14e>
1000180a:	6960      	ldr	r0, [r4, #20]
1000180c:	f000 fb14 	bl	10001e38 <__wrap___aeabi_uidiv>
10001810:	3001      	adds	r0, #1
10001812:	3801      	subs	r0, #1
10001814:	d1fd      	bne.n	10001812 <clocks_init+0x14a>
10001816:	22e0      	movs	r2, #224	; 0xe0
10001818:	4952      	ldr	r1, [pc, #328]	; (10001964 <clocks_init+0x29c>)
1000181a:	680b      	ldr	r3, [r1, #0]
1000181c:	401a      	ands	r2, r3
1000181e:	2380      	movs	r3, #128	; 0x80
10001820:	015b      	lsls	r3, r3, #5
10001822:	432b      	orrs	r3, r5
10001824:	601a      	str	r2, [r3, #0]
10001826:	2380      	movs	r3, #128	; 0x80
10001828:	2280      	movs	r2, #128	; 0x80
1000182a:	019b      	lsls	r3, r3, #6
1000182c:	432b      	orrs	r3, r5
1000182e:	0112      	lsls	r2, r2, #4
10001830:	601a      	str	r2, [r3, #0]
10001832:	2280      	movs	r2, #128	; 0x80
10001834:	4b3e      	ldr	r3, [pc, #248]	; (10001930 <clocks_init+0x268>)
10001836:	0052      	lsls	r2, r2, #1
10001838:	604a      	str	r2, [r1, #4]
1000183a:	61e3      	str	r3, [r4, #28]
1000183c:	4b4b      	ldr	r3, [pc, #300]	; (1000196c <clocks_init+0x2a4>)
1000183e:	6859      	ldr	r1, [r3, #4]
10001840:	29ff      	cmp	r1, #255	; 0xff
10001842:	d800      	bhi.n	10001846 <clocks_init+0x17e>
10001844:	605a      	str	r2, [r3, #4]
10001846:	2280      	movs	r2, #128	; 0x80
10001848:	4b49      	ldr	r3, [pc, #292]	; (10001970 <clocks_init+0x2a8>)
1000184a:	6a21      	ldr	r1, [r4, #32]
1000184c:	0112      	lsls	r2, r2, #4
1000184e:	4d47      	ldr	r5, [pc, #284]	; (1000196c <clocks_init+0x2a4>)
10001850:	601a      	str	r2, [r3, #0]
10001852:	2900      	cmp	r1, #0
10001854:	d005      	beq.n	10001862 <clocks_init+0x19a>
10001856:	6960      	ldr	r0, [r4, #20]
10001858:	f000 faee 	bl	10001e38 <__wrap___aeabi_uidiv>
1000185c:	3001      	adds	r0, #1
1000185e:	3801      	subs	r0, #1
10001860:	d1fd      	bne.n	1000185e <clocks_init+0x196>
10001862:	22e0      	movs	r2, #224	; 0xe0
10001864:	4941      	ldr	r1, [pc, #260]	; (1000196c <clocks_init+0x2a4>)
10001866:	680b      	ldr	r3, [r1, #0]
10001868:	401a      	ands	r2, r3
1000186a:	2380      	movs	r3, #128	; 0x80
1000186c:	015b      	lsls	r3, r3, #5
1000186e:	432b      	orrs	r3, r5
10001870:	601a      	str	r2, [r3, #0]
10001872:	2380      	movs	r3, #128	; 0x80
10001874:	2280      	movs	r2, #128	; 0x80
10001876:	019b      	lsls	r3, r3, #6
10001878:	432b      	orrs	r3, r5
1000187a:	0112      	lsls	r2, r2, #4
1000187c:	601a      	str	r2, [r3, #0]
1000187e:	2380      	movs	r3, #128	; 0x80
10001880:	2280      	movs	r2, #128	; 0x80
10001882:	005b      	lsls	r3, r3, #1
10001884:	604b      	str	r3, [r1, #4]
10001886:	4b2a      	ldr	r3, [pc, #168]	; (10001930 <clocks_init+0x268>)
10001888:	02d2      	lsls	r2, r2, #11
1000188a:	6223      	str	r3, [r4, #32]
1000188c:	4b39      	ldr	r3, [pc, #228]	; (10001974 <clocks_init+0x2ac>)
1000188e:	6859      	ldr	r1, [r3, #4]
10001890:	4291      	cmp	r1, r2
10001892:	d200      	bcs.n	10001896 <clocks_init+0x1ce>
10001894:	605a      	str	r2, [r3, #4]
10001896:	2280      	movs	r2, #128	; 0x80
10001898:	4b37      	ldr	r3, [pc, #220]	; (10001978 <clocks_init+0x2b0>)
1000189a:	6a61      	ldr	r1, [r4, #36]	; 0x24
1000189c:	0112      	lsls	r2, r2, #4
1000189e:	4d35      	ldr	r5, [pc, #212]	; (10001974 <clocks_init+0x2ac>)
100018a0:	601a      	str	r2, [r3, #0]
100018a2:	2900      	cmp	r1, #0
100018a4:	d005      	beq.n	100018b2 <clocks_init+0x1ea>
100018a6:	6960      	ldr	r0, [r4, #20]
100018a8:	f000 fac6 	bl	10001e38 <__wrap___aeabi_uidiv>
100018ac:	3001      	adds	r0, #1
100018ae:	3801      	subs	r0, #1
100018b0:	d1fd      	bne.n	100018ae <clocks_init+0x1e6>
100018b2:	22e0      	movs	r2, #224	; 0xe0
100018b4:	492f      	ldr	r1, [pc, #188]	; (10001974 <clocks_init+0x2ac>)
100018b6:	680b      	ldr	r3, [r1, #0]
100018b8:	401a      	ands	r2, r3
100018ba:	2380      	movs	r3, #128	; 0x80
100018bc:	015b      	lsls	r3, r3, #5
100018be:	432b      	orrs	r3, r5
100018c0:	601a      	str	r2, [r3, #0]
100018c2:	2380      	movs	r3, #128	; 0x80
100018c4:	2280      	movs	r2, #128	; 0x80
100018c6:	019b      	lsls	r3, r3, #6
100018c8:	432b      	orrs	r3, r5
100018ca:	0112      	lsls	r2, r2, #4
100018cc:	601a      	str	r2, [r3, #0]
100018ce:	2380      	movs	r3, #128	; 0x80
100018d0:	02db      	lsls	r3, r3, #11
100018d2:	604b      	str	r3, [r1, #4]
100018d4:	4b17      	ldr	r3, [pc, #92]	; (10001934 <clocks_init+0x26c>)
100018d6:	6263      	str	r3, [r4, #36]	; 0x24
100018d8:	4b28      	ldr	r3, [pc, #160]	; (1000197c <clocks_init+0x2b4>)
100018da:	685a      	ldr	r2, [r3, #4]
100018dc:	2aff      	cmp	r2, #255	; 0xff
100018de:	d802      	bhi.n	100018e6 <clocks_init+0x21e>
100018e0:	2280      	movs	r2, #128	; 0x80
100018e2:	0052      	lsls	r2, r2, #1
100018e4:	605a      	str	r2, [r3, #4]
100018e6:	2280      	movs	r2, #128	; 0x80
100018e8:	4b25      	ldr	r3, [pc, #148]	; (10001980 <clocks_init+0x2b8>)
100018ea:	69a1      	ldr	r1, [r4, #24]
100018ec:	0112      	lsls	r2, r2, #4
100018ee:	4d23      	ldr	r5, [pc, #140]	; (1000197c <clocks_init+0x2b4>)
100018f0:	601a      	str	r2, [r3, #0]
100018f2:	2900      	cmp	r1, #0
100018f4:	d005      	beq.n	10001902 <clocks_init+0x23a>
100018f6:	6960      	ldr	r0, [r4, #20]
100018f8:	f000 fa9e 	bl	10001e38 <__wrap___aeabi_uidiv>
100018fc:	3001      	adds	r0, #1
100018fe:	3801      	subs	r0, #1
10001900:	d1fd      	bne.n	100018fe <clocks_init+0x236>
10001902:	22e0      	movs	r2, #224	; 0xe0
10001904:	491d      	ldr	r1, [pc, #116]	; (1000197c <clocks_init+0x2b4>)
10001906:	680b      	ldr	r3, [r1, #0]
10001908:	401a      	ands	r2, r3
1000190a:	2380      	movs	r3, #128	; 0x80
1000190c:	015b      	lsls	r3, r3, #5
1000190e:	432b      	orrs	r3, r5
10001910:	601a      	str	r2, [r3, #0]
10001912:	2380      	movs	r3, #128	; 0x80
10001914:	2280      	movs	r2, #128	; 0x80
10001916:	019b      	lsls	r3, r3, #6
10001918:	432b      	orrs	r3, r5
1000191a:	0112      	lsls	r2, r2, #4
1000191c:	601a      	str	r2, [r3, #0]
1000191e:	2380      	movs	r3, #128	; 0x80
10001920:	005b      	lsls	r3, r3, #1
10001922:	604b      	str	r3, [r1, #4]
10001924:	4b0e      	ldr	r3, [pc, #56]	; (10001960 <clocks_init+0x298>)
10001926:	61a3      	str	r3, [r4, #24]
10001928:	e6e4      	b.n	100016f4 <clocks_init+0x2c>
1000192a:	46c0      	nop			; (mov r8, r8)
1000192c:	200007a4 	.word	0x200007a4
10001930:	02dc6c00 	.word	0x02dc6c00
10001934:	0000b71b 	.word	0x0000b71b
10001938:	40008000 	.word	0x40008000
1000193c:	4000b03c 	.word	0x4000b03c
10001940:	4000b030 	.word	0x4000b030
10001944:	59682f00 	.word	0x59682f00
10001948:	40028000 	.word	0x40028000
1000194c:	1c9c3800 	.word	0x1c9c3800
10001950:	4002c000 	.word	0x4002c000
10001954:	40008030 	.word	0x40008030
10001958:	00b71b00 	.word	0x00b71b00
1000195c:	4000803c 	.word	0x4000803c
10001960:	07735940 	.word	0x07735940
10001964:	40008054 	.word	0x40008054
10001968:	4000b054 	.word	0x4000b054
1000196c:	40008060 	.word	0x40008060
10001970:	4000b060 	.word	0x4000b060
10001974:	4000806c 	.word	0x4000806c
10001978:	4000b06c 	.word	0x4000b06c
1000197c:	40008048 	.word	0x40008048
10001980:	4000b048 	.word	0x4000b048

10001984 <clock_get_hz>:
10001984:	4b01      	ldr	r3, [pc, #4]	; (1000198c <clock_get_hz+0x8>)
10001986:	0080      	lsls	r0, r0, #2
10001988:	58c0      	ldr	r0, [r0, r3]
1000198a:	4770      	bx	lr
1000198c:	200007a4 	.word	0x200007a4

10001990 <irq_set_enabled>:
10001990:	2301      	movs	r3, #1
10001992:	4083      	lsls	r3, r0
10001994:	2900      	cmp	r1, #0
10001996:	d004      	beq.n	100019a2 <irq_set_enabled+0x12>
10001998:	4a03      	ldr	r2, [pc, #12]	; (100019a8 <irq_set_enabled+0x18>)
1000199a:	6013      	str	r3, [r2, #0]
1000199c:	4a03      	ldr	r2, [pc, #12]	; (100019ac <irq_set_enabled+0x1c>)
1000199e:	6013      	str	r3, [r2, #0]
100019a0:	4770      	bx	lr
100019a2:	4a03      	ldr	r2, [pc, #12]	; (100019b0 <irq_set_enabled+0x20>)
100019a4:	6013      	str	r3, [r2, #0]
100019a6:	e7fb      	b.n	100019a0 <irq_set_enabled+0x10>
100019a8:	e000e280 	.word	0xe000e280
100019ac:	e000e100 	.word	0xe000e100
100019b0:	e000e180 	.word	0xe000e180

100019b4 <irq_get_vtable_handler>:
100019b4:	4b02      	ldr	r3, [pc, #8]	; (100019c0 <irq_get_vtable_handler+0xc>)
100019b6:	3010      	adds	r0, #16
100019b8:	689b      	ldr	r3, [r3, #8]
100019ba:	0080      	lsls	r0, r0, #2
100019bc:	58c0      	ldr	r0, [r0, r3]
100019be:	4770      	bx	lr
100019c0:	e000ed00 	.word	0xe000ed00

100019c4 <irq_set_exclusive_handler>:
100019c4:	b570      	push	{r4, r5, r6, lr}
100019c6:	000d      	movs	r5, r1
100019c8:	f3ef 8610 	mrs	r6, PRIMASK
100019cc:	b672      	cpsid	i
100019ce:	4a0f      	ldr	r2, [pc, #60]	; (10001a0c <irq_set_exclusive_handler+0x48>)
100019d0:	6813      	ldr	r3, [r2, #0]
100019d2:	2b00      	cmp	r3, #0
100019d4:	d0fc      	beq.n	100019d0 <irq_set_exclusive_handler+0xc>
100019d6:	f3bf 8f5f 	dmb	sy
100019da:	4b0d      	ldr	r3, [pc, #52]	; (10001a10 <irq_set_exclusive_handler+0x4c>)
100019dc:	3010      	adds	r0, #16
100019de:	689b      	ldr	r3, [r3, #8]
100019e0:	0084      	lsls	r4, r0, #2
100019e2:	591b      	ldr	r3, [r3, r4]
100019e4:	4a0b      	ldr	r2, [pc, #44]	; (10001a14 <irq_set_exclusive_handler+0x50>)
100019e6:	4293      	cmp	r3, r2
100019e8:	d003      	beq.n	100019f2 <irq_set_exclusive_handler+0x2e>
100019ea:	429d      	cmp	r5, r3
100019ec:	d001      	beq.n	100019f2 <irq_set_exclusive_handler+0x2e>
100019ee:	f7ff fe65 	bl	100016bc <hard_assertion_failure>
100019f2:	4b07      	ldr	r3, [pc, #28]	; (10001a10 <irq_set_exclusive_handler+0x4c>)
100019f4:	689b      	ldr	r3, [r3, #8]
100019f6:	511d      	str	r5, [r3, r4]
100019f8:	f3bf 8f5f 	dmb	sy
100019fc:	f3bf 8f5f 	dmb	sy
10001a00:	2200      	movs	r2, #0
10001a02:	4b02      	ldr	r3, [pc, #8]	; (10001a0c <irq_set_exclusive_handler+0x48>)
10001a04:	601a      	str	r2, [r3, #0]
10001a06:	f386 8810 	msr	PRIMASK, r6
10001a0a:	bd70      	pop	{r4, r5, r6, pc}
10001a0c:	d0000124 	.word	0xd0000124
10001a10:	e000ed00 	.word	0xe000ed00
10001a14:	100001cd 	.word	0x100001cd

10001a18 <irq_remove_handler>:
10001a18:	b5f0      	push	{r4, r5, r6, r7, lr}
10001a1a:	46de      	mov	lr, fp
10001a1c:	4657      	mov	r7, sl
10001a1e:	464e      	mov	r6, r9
10001a20:	4645      	mov	r5, r8
10001a22:	b5e0      	push	{r5, r6, r7, lr}
10001a24:	000c      	movs	r4, r1
10001a26:	b083      	sub	sp, #12
10001a28:	f3ef 8a10 	mrs	sl, PRIMASK
10001a2c:	b672      	cpsid	i
10001a2e:	4a5a      	ldr	r2, [pc, #360]	; (10001b98 <irq_remove_handler+0x180>)
10001a30:	6813      	ldr	r3, [r2, #0]
10001a32:	2b00      	cmp	r3, #0
10001a34:	d0fc      	beq.n	10001a30 <irq_remove_handler+0x18>
10001a36:	f3bf 8f5f 	dmb	sy
10001a3a:	2210      	movs	r2, #16
10001a3c:	4691      	mov	r9, r2
10001a3e:	4481      	add	r9, r0
10001a40:	464a      	mov	r2, r9
10001a42:	4b56      	ldr	r3, [pc, #344]	; (10001b9c <irq_remove_handler+0x184>)
10001a44:	0096      	lsls	r6, r2, #2
10001a46:	689b      	ldr	r3, [r3, #8]
10001a48:	599d      	ldr	r5, [r3, r6]
10001a4a:	4b55      	ldr	r3, [pc, #340]	; (10001ba0 <irq_remove_handler+0x188>)
10001a4c:	4698      	mov	r8, r3
10001a4e:	429d      	cmp	r5, r3
10001a50:	d005      	beq.n	10001a5e <irq_remove_handler+0x46>
10001a52:	42a5      	cmp	r5, r4
10001a54:	d016      	beq.n	10001a84 <irq_remove_handler+0x6c>
10001a56:	4f53      	ldr	r7, [pc, #332]	; (10001ba4 <irq_remove_handler+0x18c>)
10001a58:	1beb      	subs	r3, r5, r7
10001a5a:	2b2f      	cmp	r3, #47	; 0x2f
10001a5c:	d914      	bls.n	10001a88 <irq_remove_handler+0x70>
10001a5e:	4b4f      	ldr	r3, [pc, #316]	; (10001b9c <irq_remove_handler+0x184>)
10001a60:	689b      	ldr	r3, [r3, #8]
10001a62:	519d      	str	r5, [r3, r6]
10001a64:	f3bf 8f5f 	dmb	sy
10001a68:	f3bf 8f5f 	dmb	sy
10001a6c:	2200      	movs	r2, #0
10001a6e:	4b4a      	ldr	r3, [pc, #296]	; (10001b98 <irq_remove_handler+0x180>)
10001a70:	601a      	str	r2, [r3, #0]
10001a72:	f38a 8810 	msr	PRIMASK, sl
10001a76:	b003      	add	sp, #12
10001a78:	bcf0      	pop	{r4, r5, r6, r7}
10001a7a:	46bb      	mov	fp, r7
10001a7c:	46b2      	mov	sl, r6
10001a7e:	46a9      	mov	r9, r5
10001a80:	46a0      	mov	r8, r4
10001a82:	bdf0      	pop	{r4, r5, r6, r7, pc}
10001a84:	001d      	movs	r5, r3
10001a86:	e7ea      	b.n	10001a5e <irq_remove_handler+0x46>
10001a88:	2301      	movs	r3, #1
10001a8a:	4083      	lsls	r3, r0
10001a8c:	469b      	mov	fp, r3
10001a8e:	465a      	mov	r2, fp
10001a90:	4b45      	ldr	r3, [pc, #276]	; (10001ba8 <irq_remove_handler+0x190>)
10001a92:	681b      	ldr	r3, [r3, #0]
10001a94:	401a      	ands	r2, r3
10001a96:	9200      	str	r2, [sp, #0]
10001a98:	465a      	mov	r2, fp
10001a9a:	4b44      	ldr	r3, [pc, #272]	; (10001bac <irq_remove_handler+0x194>)
10001a9c:	601a      	str	r2, [r3, #0]
10001a9e:	f3bf 8f5f 	dmb	sy
10001aa2:	f7fe fbe0 	bl	10000266 <__get_current_exception>
10001aa6:	9001      	str	r0, [sp, #4]
10001aa8:	2800      	cmp	r0, #0
10001aaa:	d003      	beq.n	10001ab4 <irq_remove_handler+0x9c>
10001aac:	4581      	cmp	r9, r0
10001aae:	d001      	beq.n	10001ab4 <irq_remove_handler+0x9c>
10001ab0:	f7ff fe04 	bl	100016bc <hard_assertion_failure>
10001ab4:	2301      	movs	r3, #1
10001ab6:	002a      	movs	r2, r5
10001ab8:	439a      	bics	r2, r3
10001aba:	0013      	movs	r3, r2
10001abc:	493c      	ldr	r1, [pc, #240]	; (10001bb0 <irq_remove_handler+0x198>)
10001abe:	1bdb      	subs	r3, r3, r7
10001ac0:	415b      	adcs	r3, r3
10001ac2:	4359      	muls	r1, r3
10001ac4:	0d09      	lsrs	r1, r1, #20
10001ac6:	6893      	ldr	r3, [r2, #8]
10001ac8:	429c      	cmp	r4, r3
10001aca:	d108      	bne.n	10001ade <irq_remove_handler+0xc6>
10001acc:	e05a      	b.n	10001b84 <irq_remove_handler+0x16c>
10001ace:	0043      	lsls	r3, r0, #1
10001ad0:	181b      	adds	r3, r3, r0
10001ad2:	009b      	lsls	r3, r3, #2
10001ad4:	18fb      	adds	r3, r7, r3
10001ad6:	6898      	ldr	r0, [r3, #8]
10001ad8:	42a0      	cmp	r0, r4
10001ada:	d011      	beq.n	10001b00 <irq_remove_handler+0xe8>
10001adc:	001a      	movs	r2, r3
10001ade:	2006      	movs	r0, #6
10001ae0:	5610      	ldrsb	r0, [r2, r0]
10001ae2:	2800      	cmp	r0, #0
10001ae4:	daf3      	bge.n	10001ace <irq_remove_handler+0xb6>
10001ae6:	9b00      	ldr	r3, [sp, #0]
10001ae8:	2b00      	cmp	r3, #0
10001aea:	d005      	beq.n	10001af8 <irq_remove_handler+0xe0>
10001aec:	465a      	mov	r2, fp
10001aee:	4b31      	ldr	r3, [pc, #196]	; (10001bb4 <irq_remove_handler+0x19c>)
10001af0:	601a      	str	r2, [r3, #0]
10001af2:	4b2d      	ldr	r3, [pc, #180]	; (10001ba8 <irq_remove_handler+0x190>)
10001af4:	601a      	str	r2, [r3, #0]
10001af6:	e7b2      	b.n	10001a5e <irq_remove_handler+0x46>
10001af8:	465a      	mov	r2, fp
10001afa:	4b2c      	ldr	r3, [pc, #176]	; (10001bac <irq_remove_handler+0x194>)
10001afc:	601a      	str	r2, [r3, #0]
10001afe:	e7ae      	b.n	10001a5e <irq_remove_handler+0x46>
10001b00:	2006      	movs	r0, #6
10001b02:	5618      	ldrsb	r0, [r3, r0]
10001b04:	2800      	cmp	r0, #0
10001b06:	db21      	blt.n	10001b4c <irq_remove_handler+0x134>
10001b08:	0042      	lsls	r2, r0, #1
10001b0a:	1811      	adds	r1, r2, r0
10001b0c:	0089      	lsls	r1, r1, #2
10001b0e:	187c      	adds	r4, r7, r1
10001b10:	4688      	mov	r8, r1
10001b12:	68a1      	ldr	r1, [r4, #8]
10001b14:	6099      	str	r1, [r3, #8]
10001b16:	79e1      	ldrb	r1, [r4, #7]
10001b18:	71d9      	strb	r1, [r3, #7]
10001b1a:	2106      	movs	r1, #6
10001b1c:	5661      	ldrsb	r1, [r4, r1]
10001b1e:	7199      	strb	r1, [r3, #6]
10001b20:	2900      	cmp	r1, #0
10001b22:	db1f      	blt.n	10001b64 <irq_remove_handler+0x14c>
10001b24:	88a4      	ldrh	r4, [r4, #4]
10001b26:	1af9      	subs	r1, r7, r3
10001b28:	0564      	lsls	r4, r4, #21
10001b2a:	1524      	asrs	r4, r4, #20
10001b2c:	4444      	add	r4, r8
10001b2e:	1909      	adds	r1, r1, r4
10001b30:	24e0      	movs	r4, #224	; 0xe0
10001b32:	0509      	lsls	r1, r1, #20
10001b34:	0d49      	lsrs	r1, r1, #21
10001b36:	0224      	lsls	r4, r4, #8
10001b38:	4321      	orrs	r1, r4
10001b3a:	8099      	strh	r1, [r3, #4]
10001b3c:	1812      	adds	r2, r2, r0
10001b3e:	4b1e      	ldr	r3, [pc, #120]	; (10001bb8 <irq_remove_handler+0x1a0>)
10001b40:	0092      	lsls	r2, r2, #2
10001b42:	18bf      	adds	r7, r7, r2
10001b44:	781a      	ldrb	r2, [r3, #0]
10001b46:	7018      	strb	r0, [r3, #0]
10001b48:	71ba      	strb	r2, [r7, #6]
10001b4a:	e7cc      	b.n	10001ae6 <irq_remove_handler+0xce>
10001b4c:	9801      	ldr	r0, [sp, #4]
10001b4e:	2800      	cmp	r0, #0
10001b50:	d10b      	bne.n	10001b6a <irq_remove_handler+0x152>
10001b52:	30ff      	adds	r0, #255	; 0xff
10001b54:	7190      	strb	r0, [r2, #6]
10001b56:	4819      	ldr	r0, [pc, #100]	; (10001bbc <irq_remove_handler+0x1a4>)
10001b58:	8090      	strh	r0, [r2, #4]
10001b5a:	4a17      	ldr	r2, [pc, #92]	; (10001bb8 <irq_remove_handler+0x1a0>)
10001b5c:	7810      	ldrb	r0, [r2, #0]
10001b5e:	7011      	strb	r1, [r2, #0]
10001b60:	7198      	strb	r0, [r3, #6]
10001b62:	e7c0      	b.n	10001ae6 <irq_remove_handler+0xce>
10001b64:	21bd      	movs	r1, #189	; 0xbd
10001b66:	0209      	lsls	r1, r1, #8
10001b68:	e7e7      	b.n	10001b3a <irq_remove_handler+0x122>
10001b6a:	4a15      	ldr	r2, [pc, #84]	; (10001bc0 <irq_remove_handler+0x1a8>)
10001b6c:	4915      	ldr	r1, [pc, #84]	; (10001bc4 <irq_remove_handler+0x1ac>)
10001b6e:	1ad2      	subs	r2, r2, r3
10001b70:	3a08      	subs	r2, #8
10001b72:	0250      	lsls	r0, r2, #9
10001b74:	0d40      	lsrs	r0, r0, #21
10001b76:	4301      	orrs	r1, r0
10001b78:	8099      	strh	r1, [r3, #4]
10001b7a:	4913      	ldr	r1, [pc, #76]	; (10001bc8 <irq_remove_handler+0x1b0>)
10001b7c:	0852      	lsrs	r2, r2, #1
10001b7e:	430a      	orrs	r2, r1
10001b80:	80da      	strh	r2, [r3, #6]
10001b82:	e7b0      	b.n	10001ae6 <irq_remove_handler+0xce>
10001b84:	2006      	movs	r0, #6
10001b86:	5610      	ldrsb	r0, [r2, r0]
10001b88:	0013      	movs	r3, r2
10001b8a:	2800      	cmp	r0, #0
10001b8c:	dabc      	bge.n	10001b08 <irq_remove_handler+0xf0>
10001b8e:	9a01      	ldr	r2, [sp, #4]
10001b90:	2a00      	cmp	r2, #0
10001b92:	d1ea      	bne.n	10001b6a <irq_remove_handler+0x152>
10001b94:	4645      	mov	r5, r8
10001b96:	e7e0      	b.n	10001b5a <irq_remove_handler+0x142>
10001b98:	d0000124 	.word	0xd0000124
10001b9c:	e000ed00 	.word	0xe000ed00
10001ba0:	100001cd 	.word	0x100001cd
10001ba4:	200002e0 	.word	0x200002e0
10001ba8:	e000e100 	.word	0xe000e100
10001bac:	e000e180 	.word	0xe000e180
10001bb0:	0000aaaa 	.word	0x0000aaaa
10001bb4:	e000e280 	.word	0xe000e280
10001bb8:	2000084a 	.word	0x2000084a
10001bbc:	ffffbd00 	.word	0xffffbd00
10001bc0:	2000031a 	.word	0x2000031a
10001bc4:	fffff000 	.word	0xfffff000
10001bc8:	fffff800 	.word	0xfffff800

10001bcc <irq_add_tail_to_free_list>:
10001bcc:	b5f8      	push	{r3, r4, r5, r6, r7, lr}
10001bce:	2501      	movs	r5, #1
10001bd0:	0004      	movs	r4, r0
10001bd2:	4305      	orrs	r5, r0
10001bd4:	f7fe fb47 	bl	10000266 <__get_current_exception>
10001bd8:	f3ef 8c10 	mrs	ip, PRIMASK
10001bdc:	b672      	cpsid	i
10001bde:	4a21      	ldr	r2, [pc, #132]	; (10001c64 <irq_add_tail_to_free_list+0x98>)
10001be0:	6813      	ldr	r3, [r2, #0]
10001be2:	2b00      	cmp	r3, #0
10001be4:	d0fc      	beq.n	10001be0 <irq_add_tail_to_free_list+0x14>
10001be6:	f3bf 8f5f 	dmb	sy
10001bea:	4e1f      	ldr	r6, [pc, #124]	; (10001c68 <irq_add_tail_to_free_list+0x9c>)
10001bec:	0021      	movs	r1, r4
10001bee:	68b7      	ldr	r7, [r6, #8]
10001bf0:	4a1e      	ldr	r2, [pc, #120]	; (10001c6c <irq_add_tail_to_free_list+0xa0>)
10001bf2:	4b1f      	ldr	r3, [pc, #124]	; (10001c70 <irq_add_tail_to_free_list+0xa4>)
10001bf4:	1a89      	subs	r1, r1, r2
10001bf6:	4149      	adcs	r1, r1
10001bf8:	434b      	muls	r3, r1
10001bfa:	0d1b      	lsrs	r3, r3, #20
10001bfc:	b259      	sxtb	r1, r3
10001bfe:	0083      	lsls	r3, r0, #2
10001c00:	58f8      	ldr	r0, [r7, r3]
10001c02:	42a8      	cmp	r0, r5
10001c04:	d01c      	beq.n	10001c40 <irq_add_tail_to_free_list+0x74>
10001c06:	2306      	movs	r3, #6
10001c08:	56d3      	ldrsb	r3, [r2, r3]
10001c0a:	428b      	cmp	r3, r1
10001c0c:	d01c      	beq.n	10001c48 <irq_add_tail_to_free_list+0x7c>
10001c0e:	2312      	movs	r3, #18
10001c10:	56d3      	ldrsb	r3, [r2, r3]
10001c12:	428b      	cmp	r3, r1
10001c14:	d022      	beq.n	10001c5c <irq_add_tail_to_free_list+0x90>
10001c16:	231e      	movs	r3, #30
10001c18:	56d3      	ldrsb	r3, [r2, r3]
10001c1a:	428b      	cmp	r3, r1
10001c1c:	d020      	beq.n	10001c60 <irq_add_tail_to_free_list+0x94>
10001c1e:	232a      	movs	r3, #42	; 0x2a
10001c20:	56d3      	ldrsb	r3, [r2, r3]
10001c22:	2003      	movs	r0, #3
10001c24:	428b      	cmp	r3, r1
10001c26:	d010      	beq.n	10001c4a <irq_add_tail_to_free_list+0x7e>
10001c28:	4b12      	ldr	r3, [pc, #72]	; (10001c74 <irq_add_tail_to_free_list+0xa8>)
10001c2a:	781a      	ldrb	r2, [r3, #0]
10001c2c:	7019      	strb	r1, [r3, #0]
10001c2e:	71a2      	strb	r2, [r4, #6]
10001c30:	f3bf 8f5f 	dmb	sy
10001c34:	2200      	movs	r2, #0
10001c36:	4b0b      	ldr	r3, [pc, #44]	; (10001c64 <irq_add_tail_to_free_list+0x98>)
10001c38:	601a      	str	r2, [r3, #0]
10001c3a:	f38c 8810 	msr	PRIMASK, ip
10001c3e:	bdf8      	pop	{r3, r4, r5, r6, r7, pc}
10001c40:	68b2      	ldr	r2, [r6, #8]
10001c42:	480d      	ldr	r0, [pc, #52]	; (10001c78 <irq_add_tail_to_free_list+0xac>)
10001c44:	50d0      	str	r0, [r2, r3]
10001c46:	e7ef      	b.n	10001c28 <irq_add_tail_to_free_list+0x5c>
10001c48:	2000      	movs	r0, #0
10001c4a:	0043      	lsls	r3, r0, #1
10001c4c:	181b      	adds	r3, r3, r0
10001c4e:	009b      	lsls	r3, r3, #2
10001c50:	18d2      	adds	r2, r2, r3
10001c52:	23ff      	movs	r3, #255	; 0xff
10001c54:	7193      	strb	r3, [r2, #6]
10001c56:	4b09      	ldr	r3, [pc, #36]	; (10001c7c <irq_add_tail_to_free_list+0xb0>)
10001c58:	8093      	strh	r3, [r2, #4]
10001c5a:	e7e5      	b.n	10001c28 <irq_add_tail_to_free_list+0x5c>
10001c5c:	2001      	movs	r0, #1
10001c5e:	e7f4      	b.n	10001c4a <irq_add_tail_to_free_list+0x7e>
10001c60:	2002      	movs	r0, #2
10001c62:	e7f2      	b.n	10001c4a <irq_add_tail_to_free_list+0x7e>
10001c64:	d0000124 	.word	0xd0000124
10001c68:	e000ed00 	.word	0xe000ed00
10001c6c:	200002e0 	.word	0x200002e0
10001c70:	0000aaaa 	.word	0x0000aaaa
10001c74:	2000084a 	.word	0x2000084a
10001c78:	100001cd 	.word	0x100001cd
10001c7c:	ffffbd00 	.word	0xffffbd00

10001c80 <irq_init_priorities>:
10001c80:	4b05      	ldr	r3, [pc, #20]	; (10001c98 <irq_init_priorities+0x18>)
10001c82:	4a06      	ldr	r2, [pc, #24]	; (10001c9c <irq_init_priorities+0x1c>)
10001c84:	6013      	str	r3, [r2, #0]
10001c86:	4a06      	ldr	r2, [pc, #24]	; (10001ca0 <irq_init_priorities+0x20>)
10001c88:	6013      	str	r3, [r2, #0]
10001c8a:	6053      	str	r3, [r2, #4]
10001c8c:	6093      	str	r3, [r2, #8]
10001c8e:	60d3      	str	r3, [r2, #12]
10001c90:	6113      	str	r3, [r2, #16]
10001c92:	6153      	str	r3, [r2, #20]
10001c94:	6193      	str	r3, [r2, #24]
10001c96:	4770      	bx	lr
10001c98:	80808080 	.word	0x80808080
10001c9c:	e000e400 	.word	0xe000e400
10001ca0:	e000e404 	.word	0xe000e404

10001ca4 <pll_init>:
10001ca4:	b5f0      	push	{r4, r5, r6, r7, lr}
10001ca6:	46c6      	mov	lr, r8
10001ca8:	0004      	movs	r4, r0
10001caa:	b500      	push	{lr}
10001cac:	200c      	movs	r0, #12
10001cae:	4690      	mov	r8, r2
10001cb0:	001f      	movs	r7, r3
10001cb2:	000e      	movs	r6, r1
10001cb4:	f000 f8c0 	bl	10001e38 <__wrap___aeabi_uidiv>
10001cb8:	0141      	lsls	r1, r0, #5
10001cba:	1a09      	subs	r1, r1, r0
10001cbc:	018d      	lsls	r5, r1, #6
10001cbe:	1a69      	subs	r1, r5, r1
10001cc0:	00c9      	lsls	r1, r1, #3
10001cc2:	1809      	adds	r1, r1, r0
10001cc4:	0189      	lsls	r1, r1, #6
10001cc6:	4640      	mov	r0, r8
10001cc8:	f000 f8b6 	bl	10001e38 <__wrap___aeabi_uidiv>
10001ccc:	9b06      	ldr	r3, [sp, #24]
10001cce:	043f      	lsls	r7, r7, #16
10001cd0:	031a      	lsls	r2, r3, #12
10001cd2:	6823      	ldr	r3, [r4, #0]
10001cd4:	4317      	orrs	r7, r2
10001cd6:	2b00      	cmp	r3, #0
10001cd8:	db22      	blt.n	10001d20 <pll_init+0x7c>
10001cda:	4b18      	ldr	r3, [pc, #96]	; (10001d3c <pll_init+0x98>)
10001cdc:	4d18      	ldr	r5, [pc, #96]	; (10001d40 <pll_init+0x9c>)
10001cde:	18e2      	adds	r2, r4, r3
10001ce0:	4253      	negs	r3, r2
10001ce2:	415a      	adcs	r2, r3
10001ce4:	2380      	movs	r3, #128	; 0x80
10001ce6:	015b      	lsls	r3, r3, #5
10001ce8:	469c      	mov	ip, r3
10001cea:	0312      	lsls	r2, r2, #12
10001cec:	4b15      	ldr	r3, [pc, #84]	; (10001d44 <pll_init+0xa0>)
10001cee:	4462      	add	r2, ip
10001cf0:	601a      	str	r2, [r3, #0]
10001cf2:	4b15      	ldr	r3, [pc, #84]	; (10001d48 <pll_init+0xa4>)
10001cf4:	601a      	str	r2, [r3, #0]
10001cf6:	0011      	movs	r1, r2
10001cf8:	68ab      	ldr	r3, [r5, #8]
10001cfa:	4399      	bics	r1, r3
10001cfc:	d1fb      	bne.n	10001cf6 <pll_init+0x52>
10001cfe:	22c0      	movs	r2, #192	; 0xc0
10001d00:	1d23      	adds	r3, r4, #4
10001d02:	0192      	lsls	r2, r2, #6
10001d04:	431a      	orrs	r2, r3
10001d06:	2321      	movs	r3, #33	; 0x21
10001d08:	6026      	str	r6, [r4, #0]
10001d0a:	60a0      	str	r0, [r4, #8]
10001d0c:	6013      	str	r3, [r2, #0]
10001d0e:	6823      	ldr	r3, [r4, #0]
10001d10:	2b00      	cmp	r3, #0
10001d12:	dafc      	bge.n	10001d0e <pll_init+0x6a>
10001d14:	2308      	movs	r3, #8
10001d16:	60e7      	str	r7, [r4, #12]
10001d18:	6013      	str	r3, [r2, #0]
10001d1a:	bc80      	pop	{r7}
10001d1c:	46b8      	mov	r8, r7
10001d1e:	bdf0      	pop	{r4, r5, r6, r7, pc}
10001d20:	233f      	movs	r3, #63	; 0x3f
10001d22:	6822      	ldr	r2, [r4, #0]
10001d24:	4013      	ands	r3, r2
10001d26:	42b3      	cmp	r3, r6
10001d28:	d1d7      	bne.n	10001cda <pll_init+0x36>
10001d2a:	68a3      	ldr	r3, [r4, #8]
10001d2c:	051b      	lsls	r3, r3, #20
10001d2e:	0d1b      	lsrs	r3, r3, #20
10001d30:	4283      	cmp	r3, r0
10001d32:	d1d2      	bne.n	10001cda <pll_init+0x36>
10001d34:	68e3      	ldr	r3, [r4, #12]
10001d36:	2f00      	cmp	r7, #0
10001d38:	d1cf      	bne.n	10001cda <pll_init+0x36>
10001d3a:	e7ee      	b.n	10001d1a <pll_init+0x76>
10001d3c:	bffd4000 	.word	0xbffd4000
10001d40:	4000c000 	.word	0x4000c000
10001d44:	4000e000 	.word	0x4000e000
10001d48:	4000f000 	.word	0x4000f000

10001d4c <watchdog_start_tick>:
10001d4c:	2380      	movs	r3, #128	; 0x80
10001d4e:	4a02      	ldr	r2, [pc, #8]	; (10001d58 <watchdog_start_tick+0xc>)
10001d50:	009b      	lsls	r3, r3, #2
10001d52:	4303      	orrs	r3, r0
10001d54:	62d3      	str	r3, [r2, #44]	; 0x2c
10001d56:	4770      	bx	lr
10001d58:	40058000 	.word	0x40058000

10001d5c <xosc_init>:
10001d5c:	23aa      	movs	r3, #170	; 0xaa
10001d5e:	4a06      	ldr	r2, [pc, #24]	; (10001d78 <xosc_init+0x1c>)
10001d60:	011b      	lsls	r3, r3, #4
10001d62:	6013      	str	r3, [r2, #0]
10001d64:	232f      	movs	r3, #47	; 0x2f
10001d66:	4905      	ldr	r1, [pc, #20]	; (10001d7c <xosc_init+0x20>)
10001d68:	60d3      	str	r3, [r2, #12]
10001d6a:	4b05      	ldr	r3, [pc, #20]	; (10001d80 <xosc_init+0x24>)
10001d6c:	6019      	str	r1, [r3, #0]
10001d6e:	6853      	ldr	r3, [r2, #4]
10001d70:	2b00      	cmp	r3, #0
10001d72:	dafc      	bge.n	10001d6e <xosc_init+0x12>
10001d74:	4770      	bx	lr
10001d76:	46c0      	nop			; (mov r8, r8)
10001d78:	40024000 	.word	0x40024000
10001d7c:	00fab000 	.word	0x00fab000
10001d80:	40026000 	.word	0x40026000

10001d84 <_out_char>:
10001d84:	b510      	push	{r4, lr}
10001d86:	2800      	cmp	r0, #0
10001d88:	d100      	bne.n	10001d8c <_out_char+0x8>
10001d8a:	bd10      	pop	{r4, pc}
10001d8c:	f000 fa82 	bl	10002294 <__wrap_putchar>
10001d90:	e7fb      	b.n	10001d8a <_out_char+0x6>
10001d92:	46c0      	nop			; (mov r8, r8)

10001d94 <weak_raw_vprintf>:
10001d94:	b510      	push	{r4, lr}
10001d96:	4a09      	ldr	r2, [pc, #36]	; (10001dbc <weak_raw_vprintf+0x28>)
10001d98:	0003      	movs	r3, r0
10001d9a:	6814      	ldr	r4, [r2, #0]
10001d9c:	b084      	sub	sp, #16
10001d9e:	2c00      	cmp	r4, #0
10001da0:	d008      	beq.n	10001db4 <weak_raw_vprintf+0x20>
10001da2:	2201      	movs	r2, #1
10001da4:	9100      	str	r1, [sp, #0]
10001da6:	4806      	ldr	r0, [pc, #24]	; (10001dc0 <weak_raw_vprintf+0x2c>)
10001da8:	4252      	negs	r2, r2
10001daa:	a903      	add	r1, sp, #12
10001dac:	47a0      	blx	r4
10001dae:	2001      	movs	r0, #1
10001db0:	b004      	add	sp, #16
10001db2:	bd10      	pop	{r4, pc}
10001db4:	f000 fabe 	bl	10002334 <__wrap_puts>
10001db8:	2000      	movs	r0, #0
10001dba:	e7f9      	b.n	10001db0 <weak_raw_vprintf+0x1c>
10001dbc:	20000814 	.word	0x20000814
10001dc0:	10001d85 	.word	0x10001d85

10001dc4 <__aeabi_bits_init>:
10001dc4:	4801      	ldr	r0, [pc, #4]	; (10001dcc <__aeabi_bits_init+0x8>)
10001dc6:	2104      	movs	r1, #4
10001dc8:	4b01      	ldr	r3, [pc, #4]	; (10001dd0 <__aeabi_bits_init+0xc>)
10001dca:	4718      	bx	r3
10001dcc:	20000330 	.word	0x20000330
10001dd0:	10001df5 	.word	0x10001df5

10001dd4 <rom_func_lookup>:
10001dd4:	2314      	movs	r3, #20
10001dd6:	b510      	push	{r4, lr}
10001dd8:	0001      	movs	r1, r0
10001dda:	8818      	ldrh	r0, [r3, #0]
10001ddc:	3304      	adds	r3, #4
10001dde:	881b      	ldrh	r3, [r3, #0]
10001de0:	4798      	blx	r3
10001de2:	bd10      	pop	{r4, pc}

10001de4 <rom_data_lookup>:
10001de4:	2316      	movs	r3, #22
10001de6:	b510      	push	{r4, lr}
10001de8:	0001      	movs	r1, r0
10001dea:	8818      	ldrh	r0, [r3, #0]
10001dec:	3302      	adds	r3, #2
10001dee:	881b      	ldrh	r3, [r3, #0]
10001df0:	4798      	blx	r3
10001df2:	bd10      	pop	{r4, pc}

10001df4 <rom_funcs_lookup>:
10001df4:	b5f8      	push	{r3, r4, r5, r6, r7, lr}
10001df6:	4647      	mov	r7, r8
10001df8:	46ce      	mov	lr, r9
10001dfa:	b580      	push	{r7, lr}
10001dfc:	1e0f      	subs	r7, r1, #0
10001dfe:	d019      	beq.n	10001e34 <rom_funcs_lookup+0x40>
10001e00:	2314      	movs	r3, #20
10001e02:	4699      	mov	r9, r3
10001e04:	3304      	adds	r3, #4
10001e06:	0004      	movs	r4, r0
10001e08:	2500      	movs	r5, #0
10001e0a:	2601      	movs	r6, #1
10001e0c:	4698      	mov	r8, r3
10001e0e:	464b      	mov	r3, r9
10001e10:	8818      	ldrh	r0, [r3, #0]
10001e12:	4643      	mov	r3, r8
10001e14:	6821      	ldr	r1, [r4, #0]
10001e16:	881b      	ldrh	r3, [r3, #0]
10001e18:	4798      	blx	r3
10001e1a:	c401      	stmia	r4!, {r0}
10001e1c:	1e43      	subs	r3, r0, #1
10001e1e:	4198      	sbcs	r0, r3
10001e20:	3501      	adds	r5, #1
10001e22:	4240      	negs	r0, r0
10001e24:	4006      	ands	r6, r0
10001e26:	42af      	cmp	r7, r5
10001e28:	d1f1      	bne.n	10001e0e <rom_funcs_lookup+0x1a>
10001e2a:	0030      	movs	r0, r6
10001e2c:	bcc0      	pop	{r6, r7}
10001e2e:	46b9      	mov	r9, r7
10001e30:	46b0      	mov	r8, r6
10001e32:	bdf8      	pop	{r3, r4, r5, r6, r7, pc}
10001e34:	2601      	movs	r6, #1
10001e36:	e7f8      	b.n	10001e2a <rom_funcs_lookup+0x36>

10001e38 <__wrap___aeabi_uidiv>:
10001e38:	4a11      	ldr	r2, [pc, #68]	; (10001e80 <divmod_u32u32_savestate+0x18>)
10001e3a:	6f93      	ldr	r3, [r2, #120]	; 0x78
10001e3c:	089b      	lsrs	r3, r3, #2
10001e3e:	d213      	bcs.n	10001e68 <divmod_u32u32_savestate>

10001e40 <divmod_u32u32_unsafe>:
10001e40:	6610      	str	r0, [r2, #96]	; 0x60
10001e42:	6651      	str	r1, [r2, #100]	; 0x64
10001e44:	2900      	cmp	r1, #0
10001e46:	d005      	beq.n	10001e54 <divmod_u32u32_unsafe+0x14>
10001e48:	e7ff      	b.n	10001e4a <divmod_u32u32_unsafe+0xa>
10001e4a:	e7ff      	b.n	10001e4c <divmod_u32u32_unsafe+0xc>
10001e4c:	e7ff      	b.n	10001e4e <divmod_u32u32_unsafe+0xe>
10001e4e:	6f51      	ldr	r1, [r2, #116]	; 0x74
10001e50:	6f10      	ldr	r0, [r2, #112]	; 0x70
10001e52:	4770      	bx	lr
10001e54:	b504      	push	{r2, lr}
10001e56:	2800      	cmp	r0, #0
10001e58:	d001      	beq.n	10001e5e <divmod_u32u32_unsafe+0x1e>
10001e5a:	2000      	movs	r0, #0
10001e5c:	43c0      	mvns	r0, r0
10001e5e:	f000 fbdf 	bl	10002620 <____aeabi_idiv0_veneer>
10001e62:	2100      	movs	r1, #0
10001e64:	bd04      	pop	{r2, pc}
10001e66:	46c0      	nop			; (mov r8, r8)

10001e68 <divmod_u32u32_savestate>:
10001e68:	b5f0      	push	{r4, r5, r6, r7, lr}
10001e6a:	6e14      	ldr	r4, [r2, #96]	; 0x60
10001e6c:	6e55      	ldr	r5, [r2, #100]	; 0x64
10001e6e:	6f57      	ldr	r7, [r2, #116]	; 0x74
10001e70:	6f16      	ldr	r6, [r2, #112]	; 0x70
10001e72:	f7ff ffe5 	bl	10001e40 <divmod_u32u32_unsafe>
10001e76:	6614      	str	r4, [r2, #96]	; 0x60
10001e78:	6655      	str	r5, [r2, #100]	; 0x64
10001e7a:	6757      	str	r7, [r2, #116]	; 0x74
10001e7c:	6716      	str	r6, [r2, #112]	; 0x70
10001e7e:	bdf0      	pop	{r4, r5, r6, r7, pc}
10001e80:	d0000000 	.word	0xd0000000

10001e84 <__aeabi_double_init>:
10001e84:	2313      	movs	r3, #19
10001e86:	b570      	push	{r4, r5, r6, lr}
10001e88:	781d      	ldrb	r5, [r3, #0]
10001e8a:	2d01      	cmp	r5, #1
10001e8c:	d015      	beq.n	10001eba <__aeabi_double_init+0x36>
10001e8e:	dd10      	ble.n	10001eb2 <__aeabi_double_init+0x2e>
10001e90:	481c      	ldr	r0, [pc, #112]	; (10001f04 <__aeabi_double_init+0x80>)
10001e92:	f7ff ffa7 	bl	10001de4 <rom_data_lookup>
10001e96:	4c1c      	ldr	r4, [pc, #112]	; (10001f08 <__aeabi_double_init+0x84>)
10001e98:	0001      	movs	r1, r0
10001e9a:	2280      	movs	r2, #128	; 0x80
10001e9c:	0020      	movs	r0, r4
10001e9e:	f000 f913 	bl	100020c8 <__wrap___aeabi_memcpy>
10001ea2:	2d02      	cmp	r5, #2
10001ea4:	d006      	beq.n	10001eb4 <__aeabi_double_init+0x30>
10001ea6:	4819      	ldr	r0, [pc, #100]	; (10001f0c <__aeabi_double_init+0x88>)
10001ea8:	f7ff ff94 	bl	10001dd4 <rom_func_lookup>
10001eac:	4b18      	ldr	r3, [pc, #96]	; (10001f10 <__aeabi_double_init+0x8c>)
10001eae:	6018      	str	r0, [r3, #0]
10001eb0:	bd70      	pop	{r4, r5, r6, pc}
10001eb2:	4c15      	ldr	r4, [pc, #84]	; (10001f08 <__aeabi_double_init+0x84>)
10001eb4:	4b17      	ldr	r3, [pc, #92]	; (10001f14 <__aeabi_double_init+0x90>)
10001eb6:	64a3      	str	r3, [r4, #72]	; 0x48
10001eb8:	e7f5      	b.n	10001ea6 <__aeabi_double_init+0x22>
10001eba:	4b16      	ldr	r3, [pc, #88]	; (10001f14 <__aeabi_double_init+0x90>)
10001ebc:	4c12      	ldr	r4, [pc, #72]	; (10001f08 <__aeabi_double_init+0x84>)
10001ebe:	6023      	str	r3, [r4, #0]
10001ec0:	6063      	str	r3, [r4, #4]
10001ec2:	60a3      	str	r3, [r4, #8]
10001ec4:	60e3      	str	r3, [r4, #12]
10001ec6:	6123      	str	r3, [r4, #16]
10001ec8:	6163      	str	r3, [r4, #20]
10001eca:	61a3      	str	r3, [r4, #24]
10001ecc:	61e3      	str	r3, [r4, #28]
10001ece:	6223      	str	r3, [r4, #32]
10001ed0:	6263      	str	r3, [r4, #36]	; 0x24
10001ed2:	62a3      	str	r3, [r4, #40]	; 0x28
10001ed4:	62e3      	str	r3, [r4, #44]	; 0x2c
10001ed6:	6323      	str	r3, [r4, #48]	; 0x30
10001ed8:	6363      	str	r3, [r4, #52]	; 0x34
10001eda:	63a3      	str	r3, [r4, #56]	; 0x38
10001edc:	63e3      	str	r3, [r4, #60]	; 0x3c
10001ede:	6423      	str	r3, [r4, #64]	; 0x40
10001ee0:	6463      	str	r3, [r4, #68]	; 0x44
10001ee2:	64a3      	str	r3, [r4, #72]	; 0x48
10001ee4:	64e3      	str	r3, [r4, #76]	; 0x4c
10001ee6:	6523      	str	r3, [r4, #80]	; 0x50
10001ee8:	6563      	str	r3, [r4, #84]	; 0x54
10001eea:	65a3      	str	r3, [r4, #88]	; 0x58
10001eec:	65e3      	str	r3, [r4, #92]	; 0x5c
10001eee:	6623      	str	r3, [r4, #96]	; 0x60
10001ef0:	6663      	str	r3, [r4, #100]	; 0x64
10001ef2:	66a3      	str	r3, [r4, #104]	; 0x68
10001ef4:	66e3      	str	r3, [r4, #108]	; 0x6c
10001ef6:	6723      	str	r3, [r4, #112]	; 0x70
10001ef8:	6763      	str	r3, [r4, #116]	; 0x74
10001efa:	67a3      	str	r3, [r4, #120]	; 0x78
10001efc:	67e3      	str	r3, [r4, #124]	; 0x7c
10001efe:	64a3      	str	r3, [r4, #72]	; 0x48
10001f00:	e7d1      	b.n	10001ea6 <__aeabi_double_init+0x22>
10001f02:	46c0      	nop			; (mov r8, r8)
10001f04:	00004453 	.word	0x00004453
10001f08:	20000470 	.word	0x20000470
10001f0c:	0000334c 	.word	0x0000334c
10001f10:	20000830 	.word	0x20000830
10001f14:	10001f19 	.word	0x10001f19

10001f18 <double_table_shim_on_use_helper>:
10001f18:	b507      	push	{r0, r1, r2, lr}
10001f1a:	4660      	mov	r0, ip
10001f1c:	8801      	ldrh	r1, [r0, #0]
10001f1e:	0a0a      	lsrs	r2, r1, #8
10001f20:	3002      	adds	r0, #2
10001f22:	2adf      	cmp	r2, #223	; 0xdf
10001f24:	d1fa      	bne.n	10001f1c <double_table_shim_on_use_helper+0x4>
10001f26:	b2c9      	uxtb	r1, r1
10001f28:	0882      	lsrs	r2, r0, #2
10001f2a:	d304      	bcc.n	10001f36 <double_table_shim_on_use_helper+0x1e>
10001f2c:	8802      	ldrh	r2, [r0, #0]
10001f2e:	8840      	ldrh	r0, [r0, #2]
10001f30:	0400      	lsls	r0, r0, #16
10001f32:	4310      	orrs	r0, r2
10001f34:	e000      	b.n	10001f38 <double_table_shim_on_use_helper+0x20>
10001f36:	6800      	ldr	r0, [r0, #0]
10001f38:	4a01      	ldr	r2, [pc, #4]	; (10001f40 <double_table_shim_on_use_helper+0x28>)
10001f3a:	5050      	str	r0, [r2, r1]
10001f3c:	9003      	str	r0, [sp, #12]
10001f3e:	bd07      	pop	{r0, r1, r2, pc}
10001f40:	20000470 	.word	0x20000470

10001f44 <__wrap___aeabi_lmul>:
10001f44:	4351      	muls	r1, r2
10001f46:	4343      	muls	r3, r0
10001f48:	18c9      	adds	r1, r1, r3
10001f4a:	468c      	mov	ip, r1
10001f4c:	0c11      	lsrs	r1, r2, #16
10001f4e:	b283      	uxth	r3, r0
10001f50:	434b      	muls	r3, r1
10001f52:	b410      	push	{r4}
10001f54:	0c04      	lsrs	r4, r0, #16
10001f56:	4361      	muls	r1, r4
10001f58:	b292      	uxth	r2, r2
10001f5a:	b280      	uxth	r0, r0
10001f5c:	4350      	muls	r0, r2
10001f5e:	4362      	muls	r2, r4
10001f60:	041c      	lsls	r4, r3, #16
10001f62:	0c1b      	lsrs	r3, r3, #16
10001f64:	1900      	adds	r0, r0, r4
10001f66:	bc10      	pop	{r4}
10001f68:	4159      	adcs	r1, r3
10001f6a:	0413      	lsls	r3, r2, #16
10001f6c:	0c12      	lsrs	r2, r2, #16
10001f6e:	18c0      	adds	r0, r0, r3
10001f70:	4151      	adcs	r1, r2
10001f72:	4461      	add	r1, ip
10001f74:	4770      	bx	lr
	...

10001f78 <__wrap___aeabi_frsub>:
10001f78:	4048      	eors	r0, r1
10001f7a:	4041      	eors	r1, r0
10001f7c:	4048      	eors	r0, r1

10001f7e <__wrap___aeabi_fsub>:
10001f7e:	4b0e      	ldr	r3, [pc, #56]	; (10001fb8 <__wrap___aeabi_fmul+0x6>)
10001f80:	685b      	ldr	r3, [r3, #4]
10001f82:	4718      	bx	r3

10001f84 <__wrap___aeabi_fadd>:
10001f84:	4b0c      	ldr	r3, [pc, #48]	; (10001fb8 <__wrap___aeabi_fmul+0x6>)
10001f86:	681b      	ldr	r3, [r3, #0]
10001f88:	4718      	bx	r3

10001f8a <__wrap___aeabi_fdiv>:
10001f8a:	4a0c      	ldr	r2, [pc, #48]	; (10001fbc <__wrap___aeabi_fmul+0xa>)
10001f8c:	6f93      	ldr	r3, [r2, #120]	; 0x78
10001f8e:	089b      	lsrs	r3, r3, #2
10001f90:	d202      	bcs.n	10001f98 <fdiv_save_state>

10001f92 <fdiv_shim_call>:
10001f92:	4b09      	ldr	r3, [pc, #36]	; (10001fb8 <__wrap___aeabi_fmul+0x6>)
10001f94:	68db      	ldr	r3, [r3, #12]
10001f96:	4718      	bx	r3

10001f98 <fdiv_save_state>:
10001f98:	b5f0      	push	{r4, r5, r6, r7, lr}
10001f9a:	6e14      	ldr	r4, [r2, #96]	; 0x60
10001f9c:	6e55      	ldr	r5, [r2, #100]	; 0x64
10001f9e:	6f57      	ldr	r7, [r2, #116]	; 0x74
10001fa0:	6f16      	ldr	r6, [r2, #112]	; 0x70
10001fa2:	f7ff fff6 	bl	10001f92 <fdiv_shim_call>
10001fa6:	4a05      	ldr	r2, [pc, #20]	; (10001fbc <__wrap___aeabi_fmul+0xa>)
10001fa8:	6614      	str	r4, [r2, #96]	; 0x60
10001faa:	6655      	str	r5, [r2, #100]	; 0x64
10001fac:	6757      	str	r7, [r2, #116]	; 0x74
10001fae:	6716      	str	r6, [r2, #112]	; 0x70
10001fb0:	bdf0      	pop	{r4, r5, r6, r7, pc}

10001fb2 <__wrap___aeabi_fmul>:
10001fb2:	4b01      	ldr	r3, [pc, #4]	; (10001fb8 <__wrap___aeabi_fmul+0x6>)
10001fb4:	689b      	ldr	r3, [r3, #8]
10001fb6:	4718      	bx	r3
10001fb8:	20000570 	.word	0x20000570
10001fbc:	d0000000 	.word	0xd0000000

10001fc0 <__wrap___aeabi_ui2f>:
10001fc0:	1a49      	subs	r1, r1, r1
10001fc2:	2800      	cmp	r0, #0
10001fc4:	d108      	bne.n	10001fd8 <__aeabi_i2f_main>
10001fc6:	4608      	mov	r0, r1
10001fc8:	4770      	bx	lr
	...

10001fcc <__wrap___aeabi_i2f>:
10001fcc:	0fc1      	lsrs	r1, r0, #31
10001fce:	07c9      	lsls	r1, r1, #31
10001fd0:	d500      	bpl.n	10001fd4 <__wrap___aeabi_i2f+0x8>
10001fd2:	4240      	negs	r0, r0
10001fd4:	2800      	cmp	r0, #0
10001fd6:	d017      	beq.n	10002008 <__aeabi_i2f_main+0x30>

10001fd8 <__aeabi_i2f_main>:
10001fd8:	46f4      	mov	ip, lr
10001fda:	b403      	push	{r0, r1}
10001fdc:	4b0b      	ldr	r3, [pc, #44]	; (1000200c <__aeabi_i2f_main+0x34>)
10001fde:	681b      	ldr	r3, [r3, #0]
10001fe0:	4798      	blx	r3
10001fe2:	bc06      	pop	{r1, r2}
10001fe4:	4081      	lsls	r1, r0
10001fe6:	389e      	subs	r0, #158	; 0x9e
10001fe8:	4240      	negs	r0, r0
10001fea:	3180      	adds	r1, #128	; 0x80
10001fec:	d207      	bcs.n	10001ffe <__aeabi_i2f_main+0x26>
10001fee:	060b      	lsls	r3, r1, #24
10001ff0:	d007      	beq.n	10002002 <__aeabi_i2f_main+0x2a>
10001ff2:	0049      	lsls	r1, r1, #1
10001ff4:	0a49      	lsrs	r1, r1, #9
10001ff6:	05c0      	lsls	r0, r0, #23
10001ff8:	4310      	orrs	r0, r2
10001ffa:	4308      	orrs	r0, r1
10001ffc:	4760      	bx	ip
10001ffe:	3001      	adds	r0, #1
10002000:	e7f8      	b.n	10001ff4 <__aeabi_i2f_main+0x1c>
10002002:	0a49      	lsrs	r1, r1, #9
10002004:	0289      	lsls	r1, r1, #10
10002006:	e7f5      	b.n	10001ff4 <__aeabi_i2f_main+0x1c>
10002008:	4770      	bx	lr
1000200a:	0000      	.short	0x0000
1000200c:	20000830 	.word	0x20000830

10002010 <__wrap___aeabi_f2uiz>:
10002010:	4b01      	ldr	r3, [pc, #4]	; (10002018 <__wrap___aeabi_f2uiz+0x8>)
10002012:	6a5b      	ldr	r3, [r3, #36]	; 0x24
10002014:	4718      	bx	r3
10002016:	0000      	.short	0x0000
10002018:	20000570 	.word	0x20000570

1000201c <__aeabi_float_init>:
1000201c:	2313      	movs	r3, #19
1000201e:	b510      	push	{r4, lr}
10002020:	4812      	ldr	r0, [pc, #72]	; (1000206c <__aeabi_float_init+0x50>)
10002022:	781c      	ldrb	r4, [r3, #0]
10002024:	f7ff fede 	bl	10001de4 <rom_data_lookup>
10002028:	0001      	movs	r1, r0
1000202a:	2c01      	cmp	r4, #1
1000202c:	d00a      	beq.n	10002044 <__aeabi_float_init+0x28>
1000202e:	dd03      	ble.n	10002038 <__aeabi_float_init+0x1c>
10002030:	2280      	movs	r2, #128	; 0x80
10002032:	480f      	ldr	r0, [pc, #60]	; (10002070 <__aeabi_float_init+0x54>)
10002034:	f000 f848 	bl	100020c8 <__wrap___aeabi_memcpy>
10002038:	480e      	ldr	r0, [pc, #56]	; (10002074 <__aeabi_float_init+0x58>)
1000203a:	f7ff fecb 	bl	10001dd4 <rom_func_lookup>
1000203e:	4b0e      	ldr	r3, [pc, #56]	; (10002078 <__aeabi_float_init+0x5c>)
10002040:	6018      	str	r0, [r3, #0]
10002042:	bd10      	pop	{r4, pc}
10002044:	4c0a      	ldr	r4, [pc, #40]	; (10002070 <__aeabi_float_init+0x54>)
10002046:	2254      	movs	r2, #84	; 0x54
10002048:	0020      	movs	r0, r4
1000204a:	f000 f83d 	bl	100020c8 <__wrap___aeabi_memcpy>
1000204e:	4b0b      	ldr	r3, [pc, #44]	; (1000207c <__aeabi_float_init+0x60>)
10002050:	6563      	str	r3, [r4, #84]	; 0x54
10002052:	65a3      	str	r3, [r4, #88]	; 0x58
10002054:	65e3      	str	r3, [r4, #92]	; 0x5c
10002056:	6623      	str	r3, [r4, #96]	; 0x60
10002058:	6663      	str	r3, [r4, #100]	; 0x64
1000205a:	66a3      	str	r3, [r4, #104]	; 0x68
1000205c:	66e3      	str	r3, [r4, #108]	; 0x6c
1000205e:	6723      	str	r3, [r4, #112]	; 0x70
10002060:	6763      	str	r3, [r4, #116]	; 0x74
10002062:	67a3      	str	r3, [r4, #120]	; 0x78
10002064:	67e3      	str	r3, [r4, #124]	; 0x7c
10002066:	6223      	str	r3, [r4, #32]
10002068:	61e3      	str	r3, [r4, #28]
1000206a:	e7e5      	b.n	10002038 <__aeabi_float_init+0x1c>
1000206c:	00004653 	.word	0x00004653
10002070:	20000570 	.word	0x20000570
10002074:	0000334c 	.word	0x0000334c
10002078:	20000830 	.word	0x20000830
1000207c:	10002081 	.word	0x10002081

10002080 <float_table_shim_on_use_helper>:
10002080:	b507      	push	{r0, r1, r2, lr}
10002082:	4660      	mov	r0, ip
10002084:	8801      	ldrh	r1, [r0, #0]
10002086:	0a0a      	lsrs	r2, r1, #8
10002088:	3002      	adds	r0, #2
1000208a:	2adf      	cmp	r2, #223	; 0xdf
1000208c:	d1fa      	bne.n	10002084 <float_table_shim_on_use_helper+0x4>
1000208e:	b2c9      	uxtb	r1, r1
10002090:	0882      	lsrs	r2, r0, #2
10002092:	d304      	bcc.n	1000209e <float_table_shim_on_use_helper+0x1e>
10002094:	8802      	ldrh	r2, [r0, #0]
10002096:	8840      	ldrh	r0, [r0, #2]
10002098:	0400      	lsls	r0, r0, #16
1000209a:	4310      	orrs	r0, r2
1000209c:	e000      	b.n	100020a0 <float_table_shim_on_use_helper+0x20>
1000209e:	6800      	ldr	r0, [r0, #0]
100020a0:	4a01      	ldr	r2, [pc, #4]	; (100020a8 <float_table_shim_on_use_helper+0x28>)
100020a2:	5050      	str	r0, [r2, r1]
100020a4:	9003      	str	r0, [sp, #12]
100020a6:	bd07      	pop	{r0, r1, r2, pc}
100020a8:	20000570 	.word	0x20000570

100020ac <__aeabi_mem_init>:
100020ac:	4801      	ldr	r0, [pc, #4]	; (100020b4 <__aeabi_mem_init+0x8>)
100020ae:	2104      	movs	r1, #4
100020b0:	4b01      	ldr	r3, [pc, #4]	; (100020b8 <__aeabi_mem_init+0xc>)
100020b2:	4718      	bx	r3
100020b4:	20000340 	.word	0x20000340
100020b8:	10001df5 	.word	0x10001df5

100020bc <__wrap_memset>:
100020bc:	4b01      	ldr	r3, [pc, #4]	; (100020c4 <__wrap_memset+0x8>)
100020be:	681b      	ldr	r3, [r3, #0]
100020c0:	4718      	bx	r3
100020c2:	0000      	.short	0x0000
100020c4:	20000340 	.word	0x20000340

100020c8 <__wrap___aeabi_memcpy>:
100020c8:	4b01      	ldr	r3, [pc, #4]	; (100020d0 <__wrap___aeabi_memcpy+0x8>)
100020ca:	685b      	ldr	r3, [r3, #4]
100020cc:	4718      	bx	r3
100020ce:	0000      	.short	0x0000
100020d0:	20000340 	.word	0x20000340

100020d4 <stdio_out_chars_no_crlf>:
100020d4:	0003      	movs	r3, r0
100020d6:	b510      	push	{r4, lr}
100020d8:	0008      	movs	r0, r1
100020da:	0011      	movs	r1, r2
100020dc:	681b      	ldr	r3, [r3, #0]
100020de:	4798      	blx	r3
100020e0:	bd10      	pop	{r4, pc}
100020e2:	46c0      	nop			; (mov r8, r8)

100020e4 <stdio_out_chars_crlf>:
100020e4:	b5f0      	push	{r4, r5, r6, r7, lr}
100020e6:	4646      	mov	r6, r8
100020e8:	464f      	mov	r7, r9
100020ea:	46d6      	mov	lr, sl
100020ec:	b5c0      	push	{r6, r7, lr}
100020ee:	7c43      	ldrb	r3, [r0, #17]
100020f0:	4680      	mov	r8, r0
100020f2:	000e      	movs	r6, r1
100020f4:	0017      	movs	r7, r2
100020f6:	2b00      	cmp	r3, #0
100020f8:	d046      	beq.n	10002188 <stdio_out_chars_crlf+0xa4>
100020fa:	2a00      	cmp	r2, #0
100020fc:	dd3f      	ble.n	1000217e <stdio_out_chars_crlf+0x9a>
100020fe:	1e4b      	subs	r3, r1, #1
10002100:	4699      	mov	r9, r3
10002102:	4b24      	ldr	r3, [pc, #144]	; (10002194 <stdio_out_chars_crlf+0xb0>)
10002104:	2501      	movs	r5, #1
10002106:	2400      	movs	r4, #0
10002108:	2000      	movs	r0, #0
1000210a:	469a      	mov	sl, r3
1000210c:	e00d      	b.n	1000212a <stdio_out_chars_crlf+0x46>
1000210e:	464b      	mov	r3, r9
10002110:	5d1b      	ldrb	r3, [r3, r4]
10002112:	3b0d      	subs	r3, #13
10002114:	425a      	negs	r2, r3
10002116:	4153      	adcs	r3, r2
10002118:	5d32      	ldrb	r2, [r6, r4]
1000211a:	b2db      	uxtb	r3, r3
1000211c:	2a0a      	cmp	r2, #10
1000211e:	d00b      	beq.n	10002138 <stdio_out_chars_crlf+0x54>
10002120:	002b      	movs	r3, r5
10002122:	3401      	adds	r4, #1
10002124:	3501      	adds	r5, #1
10002126:	429f      	cmp	r7, r3
10002128:	dd1a      	ble.n	10002160 <stdio_out_chars_crlf+0x7c>
1000212a:	2c00      	cmp	r4, #0
1000212c:	d1ef      	bne.n	1000210e <stdio_out_chars_crlf+0x2a>
1000212e:	4643      	mov	r3, r8
10002130:	5d32      	ldrb	r2, [r6, r4]
10002132:	7c1b      	ldrb	r3, [r3, #16]
10002134:	2a0a      	cmp	r2, #10
10002136:	d1f3      	bne.n	10002120 <stdio_out_chars_crlf+0x3c>
10002138:	2b00      	cmp	r3, #0
1000213a:	d1f1      	bne.n	10002120 <stdio_out_chars_crlf+0x3c>
1000213c:	42a0      	cmp	r0, r4
1000213e:	da04      	bge.n	1000214a <stdio_out_chars_crlf+0x66>
10002140:	4643      	mov	r3, r8
10002142:	1a21      	subs	r1, r4, r0
10002144:	681b      	ldr	r3, [r3, #0]
10002146:	1830      	adds	r0, r6, r0
10002148:	4798      	blx	r3
1000214a:	4643      	mov	r3, r8
1000214c:	4650      	mov	r0, sl
1000214e:	681b      	ldr	r3, [r3, #0]
10002150:	2102      	movs	r1, #2
10002152:	4798      	blx	r3
10002154:	3401      	adds	r4, #1
10002156:	0028      	movs	r0, r5
10002158:	002b      	movs	r3, r5
1000215a:	3501      	adds	r5, #1
1000215c:	429f      	cmp	r7, r3
1000215e:	dce4      	bgt.n	1000212a <stdio_out_chars_crlf+0x46>
10002160:	4287      	cmp	r7, r0
10002162:	dd04      	ble.n	1000216e <stdio_out_chars_crlf+0x8a>
10002164:	4643      	mov	r3, r8
10002166:	1a39      	subs	r1, r7, r0
10002168:	681b      	ldr	r3, [r3, #0]
1000216a:	1830      	adds	r0, r6, r0
1000216c:	4798      	blx	r3
1000216e:	19f6      	adds	r6, r6, r7
10002170:	3e01      	subs	r6, #1
10002172:	7833      	ldrb	r3, [r6, #0]
10002174:	3b0d      	subs	r3, #13
10002176:	425a      	negs	r2, r3
10002178:	4153      	adcs	r3, r2
1000217a:	4642      	mov	r2, r8
1000217c:	7413      	strb	r3, [r2, #16]
1000217e:	bce0      	pop	{r5, r6, r7}
10002180:	46ba      	mov	sl, r7
10002182:	46b1      	mov	r9, r6
10002184:	46a8      	mov	r8, r5
10002186:	bdf0      	pop	{r4, r5, r6, r7, pc}
10002188:	6803      	ldr	r3, [r0, #0]
1000218a:	0011      	movs	r1, r2
1000218c:	0030      	movs	r0, r6
1000218e:	4798      	blx	r3
10002190:	e7f5      	b.n	1000217e <stdio_out_chars_crlf+0x9a>
10002192:	46c0      	nop			; (mov r8, r8)
10002194:	10002714 	.word	0x10002714

10002198 <stdio_put_string.isra.0>:
10002198:	b5f0      	push	{r4, r5, r6, r7, lr}
1000219a:	4657      	mov	r7, sl
1000219c:	464e      	mov	r6, r9
1000219e:	4645      	mov	r5, r8
100021a0:	46de      	mov	lr, fp
100021a2:	001c      	movs	r4, r3
100021a4:	23d0      	movs	r3, #208	; 0xd0
100021a6:	b5e0      	push	{r5, r6, r7, lr}
100021a8:	061b      	lsls	r3, r3, #24
100021aa:	681f      	ldr	r7, [r3, #0]
100021ac:	4b34      	ldr	r3, [pc, #208]	; (10002280 <stdio_put_string.isra.0+0xe8>)
100021ae:	b083      	sub	sp, #12
100021b0:	0006      	movs	r6, r0
100021b2:	000d      	movs	r5, r1
100021b4:	0018      	movs	r0, r3
100021b6:	a901      	add	r1, sp, #4
100021b8:	4691      	mov	r9, r2
100021ba:	469a      	mov	sl, r3
100021bc:	f000 fa38 	bl	10002630 <__mutex_try_enter_veneer>
100021c0:	4680      	mov	r8, r0
100021c2:	2800      	cmp	r0, #0
100021c4:	d108      	bne.n	100021d8 <stdio_put_string.isra.0+0x40>
100021c6:	9b01      	ldr	r3, [sp, #4]
100021c8:	b27f      	sxtb	r7, r7
100021ca:	429f      	cmp	r7, r3
100021cc:	d004      	beq.n	100021d8 <stdio_put_string.isra.0+0x40>
100021ce:	4650      	mov	r0, sl
100021d0:	f000 fa36 	bl	10002640 <__mutex_enter_blocking_veneer>
100021d4:	2301      	movs	r3, #1
100021d6:	4698      	mov	r8, r3
100021d8:	1c6b      	adds	r3, r5, #1
100021da:	d103      	bne.n	100021e4 <stdio_put_string.isra.0+0x4c>
100021dc:	0030      	movs	r0, r6
100021de:	f000 f9dd 	bl	1000259c <strlen>
100021e2:	0005      	movs	r5, r0
100021e4:	2c00      	cmp	r4, #0
100021e6:	d127      	bne.n	10002238 <stdio_put_string.isra.0+0xa0>
100021e8:	4f26      	ldr	r7, [pc, #152]	; (10002284 <stdio_put_string.isra.0+0xec>)
100021ea:	4b27      	ldr	r3, [pc, #156]	; (10002288 <stdio_put_string.isra.0+0xf0>)
100021ec:	681c      	ldr	r4, [r3, #0]
100021ee:	2c00      	cmp	r4, #0
100021f0:	d018      	beq.n	10002224 <stdio_put_string.isra.0+0x8c>
100021f2:	464b      	mov	r3, r9
100021f4:	2b00      	cmp	r3, #0
100021f6:	d121      	bne.n	1000223c <stdio_put_string.isra.0+0xa4>
100021f8:	4b24      	ldr	r3, [pc, #144]	; (1000228c <stdio_put_string.isra.0+0xf4>)
100021fa:	4699      	mov	r9, r3
100021fc:	e002      	b.n	10002204 <stdio_put_string.isra.0+0x6c>
100021fe:	68e4      	ldr	r4, [r4, #12]
10002200:	2c00      	cmp	r4, #0
10002202:	d00f      	beq.n	10002224 <stdio_put_string.isra.0+0x8c>
10002204:	6823      	ldr	r3, [r4, #0]
10002206:	2b00      	cmp	r3, #0
10002208:	d0f9      	beq.n	100021fe <stdio_put_string.isra.0+0x66>
1000220a:	464b      	mov	r3, r9
1000220c:	681b      	ldr	r3, [r3, #0]
1000220e:	2b00      	cmp	r3, #0
10002210:	d001      	beq.n	10002216 <stdio_put_string.isra.0+0x7e>
10002212:	42a3      	cmp	r3, r4
10002214:	d1f3      	bne.n	100021fe <stdio_put_string.isra.0+0x66>
10002216:	0020      	movs	r0, r4
10002218:	002a      	movs	r2, r5
1000221a:	0031      	movs	r1, r6
1000221c:	47b8      	blx	r7
1000221e:	68e4      	ldr	r4, [r4, #12]
10002220:	2c00      	cmp	r4, #0
10002222:	d1ef      	bne.n	10002204 <stdio_put_string.isra.0+0x6c>
10002224:	4643      	mov	r3, r8
10002226:	2b00      	cmp	r3, #0
10002228:	d125      	bne.n	10002276 <stdio_put_string.isra.0+0xde>
1000222a:	b003      	add	sp, #12
1000222c:	bcf0      	pop	{r4, r5, r6, r7}
1000222e:	46bb      	mov	fp, r7
10002230:	46b2      	mov	sl, r6
10002232:	46a9      	mov	r9, r5
10002234:	46a0      	mov	r8, r4
10002236:	bdf0      	pop	{r4, r5, r6, r7, pc}
10002238:	4f15      	ldr	r7, [pc, #84]	; (10002290 <stdio_put_string.isra.0+0xf8>)
1000223a:	e7d6      	b.n	100021ea <stdio_put_string.isra.0+0x52>
1000223c:	4b13      	ldr	r3, [pc, #76]	; (1000228c <stdio_put_string.isra.0+0xf4>)
1000223e:	4699      	mov	r9, r3
10002240:	230a      	movs	r3, #10
10002242:	469b      	mov	fp, r3
10002244:	e002      	b.n	1000224c <stdio_put_string.isra.0+0xb4>
10002246:	68e4      	ldr	r4, [r4, #12]
10002248:	2c00      	cmp	r4, #0
1000224a:	d0eb      	beq.n	10002224 <stdio_put_string.isra.0+0x8c>
1000224c:	6823      	ldr	r3, [r4, #0]
1000224e:	2b00      	cmp	r3, #0
10002250:	d0f9      	beq.n	10002246 <stdio_put_string.isra.0+0xae>
10002252:	464b      	mov	r3, r9
10002254:	681b      	ldr	r3, [r3, #0]
10002256:	2b00      	cmp	r3, #0
10002258:	d001      	beq.n	1000225e <stdio_put_string.isra.0+0xc6>
1000225a:	42a3      	cmp	r3, r4
1000225c:	d1f3      	bne.n	10002246 <stdio_put_string.isra.0+0xae>
1000225e:	002a      	movs	r2, r5
10002260:	0031      	movs	r1, r6
10002262:	0020      	movs	r0, r4
10002264:	47b8      	blx	r7
10002266:	465a      	mov	r2, fp
10002268:	466b      	mov	r3, sp
1000226a:	0020      	movs	r0, r4
1000226c:	711a      	strb	r2, [r3, #4]
1000226e:	a901      	add	r1, sp, #4
10002270:	2201      	movs	r2, #1
10002272:	47b8      	blx	r7
10002274:	e7e7      	b.n	10002246 <stdio_put_string.isra.0+0xae>
10002276:	4650      	mov	r0, sl
10002278:	f000 f9ca 	bl	10002610 <__mutex_exit_veneer>
1000227c:	e7d5      	b.n	1000222a <stdio_put_string.isra.0+0x92>
1000227e:	46c0      	nop			; (mov r8, r8)
10002280:	20000350 	.word	0x20000350
10002284:	100020e5 	.word	0x100020e5
10002288:	2000080c 	.word	0x2000080c
1000228c:	20000810 	.word	0x20000810
10002290:	100020d5 	.word	0x100020d5

10002294 <__wrap_putchar>:
10002294:	b5f0      	push	{r4, r5, r6, r7, lr}
10002296:	46ce      	mov	lr, r9
10002298:	4647      	mov	r7, r8
1000229a:	b580      	push	{r7, lr}
1000229c:	b083      	sub	sp, #12
1000229e:	466b      	mov	r3, sp
100022a0:	1cde      	adds	r6, r3, #3
100022a2:	23d0      	movs	r3, #208	; 0xd0
100022a4:	7030      	strb	r0, [r6, #0]
100022a6:	061b      	lsls	r3, r3, #24
100022a8:	681c      	ldr	r4, [r3, #0]
100022aa:	4b1f      	ldr	r3, [pc, #124]	; (10002328 <__wrap_putchar+0x94>)
100022ac:	4680      	mov	r8, r0
100022ae:	a901      	add	r1, sp, #4
100022b0:	0018      	movs	r0, r3
100022b2:	4699      	mov	r9, r3
100022b4:	f000 f9bc 	bl	10002630 <__mutex_try_enter_veneer>
100022b8:	1e07      	subs	r7, r0, #0
100022ba:	d020      	beq.n	100022fe <__wrap_putchar+0x6a>
100022bc:	4b1b      	ldr	r3, [pc, #108]	; (1000232c <__wrap_putchar+0x98>)
100022be:	681c      	ldr	r4, [r3, #0]
100022c0:	2c00      	cmp	r4, #0
100022c2:	d028      	beq.n	10002316 <__wrap_putchar+0x82>
100022c4:	4d1a      	ldr	r5, [pc, #104]	; (10002330 <__wrap_putchar+0x9c>)
100022c6:	e002      	b.n	100022ce <__wrap_putchar+0x3a>
100022c8:	68e4      	ldr	r4, [r4, #12]
100022ca:	2c00      	cmp	r4, #0
100022cc:	d00f      	beq.n	100022ee <__wrap_putchar+0x5a>
100022ce:	6823      	ldr	r3, [r4, #0]
100022d0:	2b00      	cmp	r3, #0
100022d2:	d0f9      	beq.n	100022c8 <__wrap_putchar+0x34>
100022d4:	682b      	ldr	r3, [r5, #0]
100022d6:	2b00      	cmp	r3, #0
100022d8:	d001      	beq.n	100022de <__wrap_putchar+0x4a>
100022da:	42a3      	cmp	r3, r4
100022dc:	d1f4      	bne.n	100022c8 <__wrap_putchar+0x34>
100022de:	0020      	movs	r0, r4
100022e0:	2201      	movs	r2, #1
100022e2:	0031      	movs	r1, r6
100022e4:	f7ff fefe 	bl	100020e4 <stdio_out_chars_crlf>
100022e8:	68e4      	ldr	r4, [r4, #12]
100022ea:	2c00      	cmp	r4, #0
100022ec:	d1ef      	bne.n	100022ce <__wrap_putchar+0x3a>
100022ee:	2f00      	cmp	r7, #0
100022f0:	d111      	bne.n	10002316 <__wrap_putchar+0x82>
100022f2:	4640      	mov	r0, r8
100022f4:	b003      	add	sp, #12
100022f6:	bcc0      	pop	{r6, r7}
100022f8:	46b9      	mov	r9, r7
100022fa:	46b0      	mov	r8, r6
100022fc:	bdf0      	pop	{r4, r5, r6, r7, pc}
100022fe:	9b01      	ldr	r3, [sp, #4]
10002300:	b264      	sxtb	r4, r4
10002302:	429c      	cmp	r4, r3
10002304:	d00b      	beq.n	1000231e <__wrap_putchar+0x8a>
10002306:	4648      	mov	r0, r9
10002308:	f000 f99a 	bl	10002640 <__mutex_enter_blocking_veneer>
1000230c:	4b07      	ldr	r3, [pc, #28]	; (1000232c <__wrap_putchar+0x98>)
1000230e:	2701      	movs	r7, #1
10002310:	681c      	ldr	r4, [r3, #0]
10002312:	2c00      	cmp	r4, #0
10002314:	d1d6      	bne.n	100022c4 <__wrap_putchar+0x30>
10002316:	4648      	mov	r0, r9
10002318:	f000 f97a 	bl	10002610 <__mutex_exit_veneer>
1000231c:	e7e9      	b.n	100022f2 <__wrap_putchar+0x5e>
1000231e:	4b03      	ldr	r3, [pc, #12]	; (1000232c <__wrap_putchar+0x98>)
10002320:	681c      	ldr	r4, [r3, #0]
10002322:	2c00      	cmp	r4, #0
10002324:	d1ce      	bne.n	100022c4 <__wrap_putchar+0x30>
10002326:	e7e4      	b.n	100022f2 <__wrap_putchar+0x5e>
10002328:	20000350 	.word	0x20000350
1000232c:	2000080c 	.word	0x2000080c
10002330:	20000810 	.word	0x20000810

10002334 <__wrap_puts>:
10002334:	b570      	push	{r4, r5, r6, lr}
10002336:	0004      	movs	r4, r0
10002338:	f000 f930 	bl	1000259c <strlen>
1000233c:	2300      	movs	r3, #0
1000233e:	0001      	movs	r1, r0
10002340:	0005      	movs	r5, r0
10002342:	2201      	movs	r2, #1
10002344:	0020      	movs	r0, r4
10002346:	f7ff ff27 	bl	10002198 <stdio_put_string.isra.0>
1000234a:	4b08      	ldr	r3, [pc, #32]	; (1000236c <__wrap_puts+0x38>)
1000234c:	681c      	ldr	r4, [r3, #0]
1000234e:	2c00      	cmp	r4, #0
10002350:	d006      	beq.n	10002360 <__wrap_puts+0x2c>
10002352:	6863      	ldr	r3, [r4, #4]
10002354:	2b00      	cmp	r3, #0
10002356:	d005      	beq.n	10002364 <__wrap_puts+0x30>
10002358:	4798      	blx	r3
1000235a:	68e4      	ldr	r4, [r4, #12]
1000235c:	2c00      	cmp	r4, #0
1000235e:	d1f8      	bne.n	10002352 <__wrap_puts+0x1e>
10002360:	0028      	movs	r0, r5
10002362:	bd70      	pop	{r4, r5, r6, pc}
10002364:	68e4      	ldr	r4, [r4, #12]
10002366:	2c00      	cmp	r4, #0
10002368:	d1f3      	bne.n	10002352 <__wrap_puts+0x1e>
1000236a:	e7f9      	b.n	10002360 <__wrap_puts+0x2c>
1000236c:	2000080c 	.word	0x2000080c

10002370 <_retrieve_unique_id_on_boot>:
10002370:	b510      	push	{r4, lr}
10002372:	4802      	ldr	r0, [pc, #8]	; (1000237c <_retrieve_unique_id_on_boot+0xc>)
10002374:	f000 f804 	bl	10002380 <flash_get_unique_id>
10002378:	bd10      	pop	{r4, pc}
1000237a:	46c0      	nop			; (mov r8, r8)
1000237c:	20000828 	.word	0x20000828

10002380 <flash_get_unique_id>:
10002380:	b530      	push	{r4, r5, lr}
10002382:	2500      	movs	r5, #0
10002384:	b089      	sub	sp, #36	; 0x24
10002386:	0004      	movs	r4, r0
10002388:	2209      	movs	r2, #9
1000238a:	2100      	movs	r1, #0
1000238c:	a801      	add	r0, sp, #4
1000238e:	9500      	str	r5, [sp, #0]
10002390:	f7ff fe94 	bl	100020bc <__wrap_memset>
10002394:	2209      	movs	r2, #9
10002396:	2100      	movs	r1, #0
10002398:	a805      	add	r0, sp, #20
1000239a:	9504      	str	r5, [sp, #16]
1000239c:	f7ff fe8e 	bl	100020bc <__wrap_memset>
100023a0:	234b      	movs	r3, #75	; 0x4b
100023a2:	466a      	mov	r2, sp
100023a4:	4668      	mov	r0, sp
100023a6:	7013      	strb	r3, [r2, #0]
100023a8:	a904      	add	r1, sp, #16
100023aa:	220d      	movs	r2, #13
100023ac:	f000 f928 	bl	10002600 <__flash_do_cmd_veneer>
100023b0:	2115      	movs	r1, #21
100023b2:	2208      	movs	r2, #8
100023b4:	0020      	movs	r0, r4
100023b6:	4469      	add	r1, sp
100023b8:	f7ff fe86 	bl	100020c8 <__wrap___aeabi_memcpy>
100023bc:	b009      	add	sp, #36	; 0x24
100023be:	bd30      	pop	{r4, r5, pc}

100023c0 <pio_add_program>:
100023c0:	b5f0      	push	{r4, r5, r6, r7, lr}
100023c2:	46d6      	mov	lr, sl
100023c4:	464f      	mov	r7, r9
100023c6:	4646      	mov	r6, r8
100023c8:	4688      	mov	r8, r1
100023ca:	b5c0      	push	{r6, r7, lr}
100023cc:	2405      	movs	r4, #5
100023ce:	0006      	movs	r6, r0
100023d0:	f7fe f98e 	bl	100006f0 <hw_claim_lock>
100023d4:	4643      	mov	r3, r8
100023d6:	791f      	ldrb	r7, [r3, #4]
100023d8:	571c      	ldrsb	r4, [r3, r4]
100023da:	4b28      	ldr	r3, [pc, #160]	; (1000247c <pio_add_program+0xbc>)
100023dc:	4681      	mov	r9, r0
100023de:	18f0      	adds	r0, r6, r3
100023e0:	4243      	negs	r3, r0
100023e2:	4158      	adcs	r0, r3
100023e4:	4b26      	ldr	r3, [pc, #152]	; (10002480 <pio_add_program+0xc0>)
100023e6:	469a      	mov	sl, r3
100023e8:	0083      	lsls	r3, r0, #2
100023ea:	469c      	mov	ip, r3
100023ec:	4653      	mov	r3, sl
100023ee:	4662      	mov	r2, ip
100023f0:	5898      	ldr	r0, [r3, r2]
100023f2:	2201      	movs	r2, #1
100023f4:	2320      	movs	r3, #32
100023f6:	40ba      	lsls	r2, r7
100023f8:	1bdb      	subs	r3, r3, r7
100023fa:	3a01      	subs	r2, #1
100023fc:	2c00      	cmp	r4, #0
100023fe:	db32      	blt.n	10002466 <pio_add_program+0xa6>
10002400:	429c      	cmp	r4, r3
10002402:	dc2d      	bgt.n	10002460 <pio_add_program+0xa0>
10002404:	40a2      	lsls	r2, r4
10002406:	0015      	movs	r5, r2
10002408:	4210      	tst	r0, r2
1000240a:	d129      	bne.n	10002460 <pio_add_program+0xa0>
1000240c:	2f00      	cmp	r7, #0
1000240e:	d01a      	beq.n	10002446 <pio_add_program+0x86>
10002410:	4643      	mov	r3, r8
10002412:	785a      	ldrb	r2, [r3, #1]
10002414:	7819      	ldrb	r1, [r3, #0]
10002416:	0212      	lsls	r2, r2, #8
10002418:	4311      	orrs	r1, r2
1000241a:	4642      	mov	r2, r8
1000241c:	789b      	ldrb	r3, [r3, #2]
1000241e:	78d2      	ldrb	r2, [r2, #3]
10002420:	041b      	lsls	r3, r3, #16
10002422:	430b      	orrs	r3, r1
10002424:	0612      	lsls	r2, r2, #24
10002426:	431a      	orrs	r2, r3
10002428:	4690      	mov	r8, r2
1000242a:	2200      	movs	r2, #0
1000242c:	4641      	mov	r1, r8
1000242e:	0053      	lsls	r3, r2, #1
10002430:	5ac9      	ldrh	r1, [r1, r3]
10002432:	0b4b      	lsrs	r3, r1, #13
10002434:	d100      	bne.n	10002438 <pio_add_program+0x78>
10002436:	1909      	adds	r1, r1, r4
10002438:	1913      	adds	r3, r2, r4
1000243a:	3312      	adds	r3, #18
1000243c:	009b      	lsls	r3, r3, #2
1000243e:	3201      	adds	r2, #1
10002440:	5199      	str	r1, [r3, r6]
10002442:	4297      	cmp	r7, r2
10002444:	d8f2      	bhi.n	1000242c <pio_add_program+0x6c>
10002446:	4653      	mov	r3, sl
10002448:	4662      	mov	r2, ip
1000244a:	4305      	orrs	r5, r0
1000244c:	509d      	str	r5, [r3, r2]
1000244e:	4648      	mov	r0, r9
10002450:	f7fe f95a 	bl	10000708 <hw_claim_unlock>
10002454:	0020      	movs	r0, r4
10002456:	bce0      	pop	{r5, r6, r7}
10002458:	46ba      	mov	sl, r7
1000245a:	46b1      	mov	r9, r6
1000245c:	46a8      	mov	r8, r5
1000245e:	bdf0      	pop	{r4, r5, r6, r7, pc}
10002460:	4808      	ldr	r0, [pc, #32]	; (10002484 <pio_add_program+0xc4>)
10002462:	f7ff f913 	bl	1000168c <panic>
10002466:	2b00      	cmp	r3, #0
10002468:	da02      	bge.n	10002470 <pio_add_program+0xb0>
1000246a:	e7f9      	b.n	10002460 <pio_add_program+0xa0>
1000246c:	3b01      	subs	r3, #1
1000246e:	d3f7      	bcc.n	10002460 <pio_add_program+0xa0>
10002470:	0015      	movs	r5, r2
10002472:	409d      	lsls	r5, r3
10002474:	001c      	movs	r4, r3
10002476:	4205      	tst	r5, r0
10002478:	d1f8      	bne.n	1000246c <pio_add_program+0xac>
1000247a:	e7c7      	b.n	1000240c <pio_add_program+0x4c>
1000247c:	afd00000 	.word	0xafd00000
10002480:	2000068c 	.word	0x2000068c
10002484:	10002718 	.word	0x10002718

10002488 <pio_sm_set_consecutive_pindirs>:
10002488:	b5f0      	push	{r4, r5, r6, r7, lr}
1000248a:	464e      	mov	r6, r9
1000248c:	4645      	mov	r5, r8
1000248e:	46de      	mov	lr, fp
10002490:	4657      	mov	r7, sl
10002492:	468a      	mov	sl, r1
10002494:	0049      	lsls	r1, r1, #1
10002496:	b5e0      	push	{r5, r6, r7, lr}
10002498:	000d      	movs	r5, r1
1000249a:	4680      	mov	r8, r0
1000249c:	4455      	add	r5, sl
1000249e:	00ed      	lsls	r5, r5, #3
100024a0:	4445      	add	r5, r8
100024a2:	4689      	mov	r9, r1
100024a4:	0029      	movs	r1, r5
100024a6:	ac09      	add	r4, sp, #36	; 0x24
100024a8:	7826      	ldrb	r6, [r4, #0]
100024aa:	31dc      	adds	r1, #220	; 0xdc
100024ac:	1e74      	subs	r4, r6, #1
100024ae:	41a6      	sbcs	r6, r4
100024b0:	6808      	ldr	r0, [r1, #0]
100024b2:	4274      	negs	r4, r6
100024b4:	4684      	mov	ip, r0
100024b6:	4814      	ldr	r0, [pc, #80]	; (10002508 <pio_sm_set_consecutive_pindirs+0x80>)
100024b8:	261f      	movs	r6, #31
100024ba:	4683      	mov	fp, r0
100024bc:	4026      	ands	r6, r4
100024be:	445e      	add	r6, fp
100024c0:	2b05      	cmp	r3, #5
100024c2:	d90c      	bls.n	100024de <pio_sm_set_consecutive_pindirs+0x56>
100024c4:	20a0      	movs	r0, #160	; 0xa0
100024c6:	271f      	movs	r7, #31
100024c8:	0540      	lsls	r0, r0, #21
100024ca:	35d8      	adds	r5, #216	; 0xd8
100024cc:	0154      	lsls	r4, r2, #5
100024ce:	4304      	orrs	r4, r0
100024d0:	3205      	adds	r2, #5
100024d2:	3b05      	subs	r3, #5
100024d4:	600c      	str	r4, [r1, #0]
100024d6:	403a      	ands	r2, r7
100024d8:	602e      	str	r6, [r5, #0]
100024da:	2b05      	cmp	r3, #5
100024dc:	d8f6      	bhi.n	100024cc <pio_sm_set_consecutive_pindirs+0x44>
100024de:	4649      	mov	r1, r9
100024e0:	4451      	add	r1, sl
100024e2:	00c9      	lsls	r1, r1, #3
100024e4:	4441      	add	r1, r8
100024e6:	0152      	lsls	r2, r2, #5
100024e8:	069b      	lsls	r3, r3, #26
100024ea:	4313      	orrs	r3, r2
100024ec:	000a      	movs	r2, r1
100024ee:	0008      	movs	r0, r1
100024f0:	32dc      	adds	r2, #220	; 0xdc
100024f2:	6013      	str	r3, [r2, #0]
100024f4:	4663      	mov	r3, ip
100024f6:	30d8      	adds	r0, #216	; 0xd8
100024f8:	6006      	str	r6, [r0, #0]
100024fa:	6013      	str	r3, [r2, #0]
100024fc:	bcf0      	pop	{r4, r5, r6, r7}
100024fe:	46bb      	mov	fp, r7
10002500:	46b2      	mov	sl, r6
10002502:	46a9      	mov	r9, r5
10002504:	46a0      	mov	r8, r4
10002506:	bdf0      	pop	{r4, r5, r6, r7, pc}
10002508:	0000e080 	.word	0x0000e080

1000250c <pio_sm_init>:
1000250c:	b5f0      	push	{r4, r5, r6, r7, lr}
1000250e:	2501      	movs	r5, #1
10002510:	408d      	lsls	r5, r1
10002512:	6804      	ldr	r4, [r0, #0]
10002514:	43ac      	bics	r4, r5
10002516:	004d      	lsls	r5, r1, #1
10002518:	6004      	str	r4, [r0, #0]
1000251a:	186c      	adds	r4, r5, r1
1000251c:	00e4      	lsls	r4, r4, #3
1000251e:	1904      	adds	r4, r0, r4
10002520:	0026      	movs	r6, r4
10002522:	36c8      	adds	r6, #200	; 0xc8
10002524:	2b00      	cmp	r3, #0
10002526:	d02a      	beq.n	1000257e <pio_sm_init+0x72>
10002528:	681f      	ldr	r7, [r3, #0]
1000252a:	34dc      	adds	r4, #220	; 0xdc
1000252c:	6037      	str	r7, [r6, #0]
1000252e:	685f      	ldr	r7, [r3, #4]
10002530:	6077      	str	r7, [r6, #4]
10002532:	689f      	ldr	r7, [r3, #8]
10002534:	68db      	ldr	r3, [r3, #12]
10002536:	60b7      	str	r7, [r6, #8]
10002538:	6023      	str	r3, [r4, #0]
1000253a:	186d      	adds	r5, r5, r1
1000253c:	00eb      	lsls	r3, r5, #3
1000253e:	001d      	movs	r5, r3
10002540:	2480      	movs	r4, #128	; 0x80
10002542:	35d0      	adds	r5, #208	; 0xd0
10002544:	1945      	adds	r5, r0, r5
10002546:	0164      	lsls	r4, r4, #5
10002548:	432c      	orrs	r4, r5
1000254a:	2580      	movs	r5, #128	; 0x80
1000254c:	062d      	lsls	r5, r5, #24
1000254e:	6025      	str	r5, [r4, #0]
10002550:	6025      	str	r5, [r4, #0]
10002552:	4c11      	ldr	r4, [pc, #68]	; (10002598 <pio_sm_init+0x8c>)
10002554:	1d0d      	adds	r5, r1, #4
10002556:	408c      	lsls	r4, r1
10002558:	6084      	str	r4, [r0, #8]
1000255a:	2401      	movs	r4, #1
1000255c:	0027      	movs	r7, r4
1000255e:	40af      	lsls	r7, r5
10002560:	003d      	movs	r5, r7
10002562:	3108      	adds	r1, #8
10002564:	408c      	lsls	r4, r1
10002566:	211f      	movs	r1, #31
10002568:	6806      	ldr	r6, [r0, #0]
1000256a:	400a      	ands	r2, r1
1000256c:	4335      	orrs	r5, r6
1000256e:	6005      	str	r5, [r0, #0]
10002570:	6805      	ldr	r5, [r0, #0]
10002572:	432c      	orrs	r4, r5
10002574:	6004      	str	r4, [r0, #0]
10002576:	18c0      	adds	r0, r0, r3
10002578:	30d8      	adds	r0, #216	; 0xd8
1000257a:	6002      	str	r2, [r0, #0]
1000257c:	bdf0      	pop	{r4, r5, r6, r7, pc}
1000257e:	2780      	movs	r7, #128	; 0x80
10002580:	027f      	lsls	r7, r7, #9
10002582:	6037      	str	r7, [r6, #0]
10002584:	27f8      	movs	r7, #248	; 0xf8
10002586:	027f      	lsls	r7, r7, #9
10002588:	6077      	str	r7, [r6, #4]
1000258a:	27c0      	movs	r7, #192	; 0xc0
1000258c:	34dc      	adds	r4, #220	; 0xdc
1000258e:	033f      	lsls	r7, r7, #12
10002590:	60b7      	str	r7, [r6, #8]
10002592:	6023      	str	r3, [r4, #0]
10002594:	e7d1      	b.n	1000253a <pio_sm_init+0x2e>
10002596:	46c0      	nop			; (mov r8, r8)
10002598:	01010101 	.word	0x01010101

1000259c <strlen>:
1000259c:	b510      	push	{r4, lr}
1000259e:	0783      	lsls	r3, r0, #30
100025a0:	d00a      	beq.n	100025b8 <strlen+0x1c>
100025a2:	0003      	movs	r3, r0
100025a4:	2103      	movs	r1, #3
100025a6:	e002      	b.n	100025ae <strlen+0x12>
100025a8:	3301      	adds	r3, #1
100025aa:	420b      	tst	r3, r1
100025ac:	d005      	beq.n	100025ba <strlen+0x1e>
100025ae:	781a      	ldrb	r2, [r3, #0]
100025b0:	2a00      	cmp	r2, #0
100025b2:	d1f9      	bne.n	100025a8 <strlen+0xc>
100025b4:	1a18      	subs	r0, r3, r0
100025b6:	bd10      	pop	{r4, pc}
100025b8:	0003      	movs	r3, r0
100025ba:	6819      	ldr	r1, [r3, #0]
100025bc:	4a0c      	ldr	r2, [pc, #48]	; (100025f0 <strlen+0x54>)
100025be:	4c0d      	ldr	r4, [pc, #52]	; (100025f4 <strlen+0x58>)
100025c0:	188a      	adds	r2, r1, r2
100025c2:	438a      	bics	r2, r1
100025c4:	4222      	tst	r2, r4
100025c6:	d10f      	bne.n	100025e8 <strlen+0x4c>
100025c8:	6859      	ldr	r1, [r3, #4]
100025ca:	4a09      	ldr	r2, [pc, #36]	; (100025f0 <strlen+0x54>)
100025cc:	3304      	adds	r3, #4
100025ce:	188a      	adds	r2, r1, r2
100025d0:	438a      	bics	r2, r1
100025d2:	4222      	tst	r2, r4
100025d4:	d108      	bne.n	100025e8 <strlen+0x4c>
100025d6:	6859      	ldr	r1, [r3, #4]
100025d8:	4a05      	ldr	r2, [pc, #20]	; (100025f0 <strlen+0x54>)
100025da:	3304      	adds	r3, #4
100025dc:	188a      	adds	r2, r1, r2
100025de:	438a      	bics	r2, r1
100025e0:	4222      	tst	r2, r4
100025e2:	d0f1      	beq.n	100025c8 <strlen+0x2c>
100025e4:	e000      	b.n	100025e8 <strlen+0x4c>
100025e6:	3301      	adds	r3, #1
100025e8:	781a      	ldrb	r2, [r3, #0]
100025ea:	2a00      	cmp	r2, #0
100025ec:	d1fb      	bne.n	100025e6 <strlen+0x4a>
100025ee:	e7e1      	b.n	100025b4 <strlen+0x18>
100025f0:	fefefeff 	.word	0xfefefeff
100025f4:	80808080 	.word	0x80808080

100025f8 <_fini>:
100025f8:	b5f8      	push	{r3, r4, r5, r6, r7, lr}
100025fa:	46c0      	nop			; (mov r8, r8)
100025fc:	0000      	movs	r0, r0
	...

10002600 <__flash_do_cmd_veneer>:
10002600:	b401      	push	{r0}
10002602:	4802      	ldr	r0, [pc, #8]	; (1000260c <__flash_do_cmd_veneer+0xc>)
10002604:	4684      	mov	ip, r0
10002606:	bc01      	pop	{r0}
10002608:	4760      	bx	ip
1000260a:	bf00      	nop
1000260c:	200001ed 	.word	0x200001ed

10002610 <__mutex_exit_veneer>:
10002610:	b401      	push	{r0}
10002612:	4802      	ldr	r0, [pc, #8]	; (1000261c <__mutex_exit_veneer+0xc>)
10002614:	4684      	mov	ip, r0
10002616:	bc01      	pop	{r0}
10002618:	4760      	bx	ip
1000261a:	bf00      	nop
1000261c:	2000014d 	.word	0x2000014d

10002620 <____aeabi_idiv0_veneer>:
10002620:	b401      	push	{r0}
10002622:	4802      	ldr	r0, [pc, #8]	; (1000262c <____aeabi_idiv0_veneer+0xc>)
10002624:	4684      	mov	ip, r0
10002626:	bc01      	pop	{r0}
10002628:	4760      	bx	ip
1000262a:	bf00      	nop
1000262c:	200002b1 	.word	0x200002b1

10002630 <__mutex_try_enter_veneer>:
10002630:	b401      	push	{r0}
10002632:	4802      	ldr	r0, [pc, #8]	; (1000263c <__mutex_try_enter_veneer+0xc>)
10002634:	4684      	mov	ip, r0
10002636:	bc01      	pop	{r0}
10002638:	4760      	bx	ip
1000263a:	bf00      	nop
1000263c:	20000109 	.word	0x20000109

10002640 <__mutex_enter_blocking_veneer>:
10002640:	b401      	push	{r0}
10002642:	4802      	ldr	r0, [pc, #8]	; (1000264c <__mutex_enter_blocking_veneer+0xc>)
10002644:	4684      	mov	ip, r0
10002646:	bc01      	pop	{r0}
10002648:	4760      	bx	ip
1000264a:	bf00      	nop
1000264c:	200000c1 	.word	0x200000c1

Disassembly of section .data:

200000c0 <mutex_enter_blocking>:
200000c0:	23d0      	movs	r3, #208	; 0xd0
200000c2:	b530      	push	{r4, r5, lr}
200000c4:	2500      	movs	r5, #0
200000c6:	061b      	lsls	r3, r3, #24
200000c8:	2400      	movs	r4, #0
200000ca:	575d      	ldrsb	r5, [r3, r5]
200000cc:	e006      	b.n	200000dc <mutex_enter_blocking+0x1c>
200000ce:	6803      	ldr	r3, [r0, #0]
200000d0:	f3bf 8f5f 	dmb	sy
200000d4:	601c      	str	r4, [r3, #0]
200000d6:	f381 8810 	msr	PRIMASK, r1
200000da:	bf20      	wfe
200000dc:	6802      	ldr	r2, [r0, #0]
200000de:	f3ef 8110 	mrs	r1, PRIMASK
200000e2:	b672      	cpsid	i
200000e4:	6813      	ldr	r3, [r2, #0]
200000e6:	2b00      	cmp	r3, #0
200000e8:	d0fc      	beq.n	200000e4 <mutex_enter_blocking+0x24>
200000ea:	f3bf 8f5f 	dmb	sy
200000ee:	7903      	ldrb	r3, [r0, #4]
200000f0:	2b7f      	cmp	r3, #127	; 0x7f
200000f2:	d9ec      	bls.n	200000ce <mutex_enter_blocking+0xe>
200000f4:	7105      	strb	r5, [r0, #4]
200000f6:	6803      	ldr	r3, [r0, #0]
200000f8:	f3bf 8f5f 	dmb	sy
200000fc:	2200      	movs	r2, #0
200000fe:	601a      	str	r2, [r3, #0]
20000100:	f381 8810 	msr	PRIMASK, r1
20000104:	bd30      	pop	{r4, r5, pc}
20000106:	46c0      	nop			; (mov r8, r8)

20000108 <mutex_try_enter>:
20000108:	0003      	movs	r3, r0
2000010a:	6800      	ldr	r0, [r0, #0]
2000010c:	f3ef 8c10 	mrs	ip, PRIMASK
20000110:	b672      	cpsid	i
20000112:	6802      	ldr	r2, [r0, #0]
20000114:	2a00      	cmp	r2, #0
20000116:	d0fc      	beq.n	20000112 <mutex_try_enter+0xa>
20000118:	f3bf 8f5f 	dmb	sy
2000011c:	2204      	movs	r2, #4
2000011e:	569a      	ldrsb	r2, [r3, r2]
20000120:	2a00      	cmp	r2, #0
20000122:	db0b      	blt.n	2000013c <mutex_try_enter+0x34>
20000124:	2900      	cmp	r1, #0
20000126:	d00f      	beq.n	20000148 <mutex_try_enter+0x40>
20000128:	2000      	movs	r0, #0
2000012a:	600a      	str	r2, [r1, #0]
2000012c:	681b      	ldr	r3, [r3, #0]
2000012e:	f3bf 8f5f 	dmb	sy
20000132:	2200      	movs	r2, #0
20000134:	601a      	str	r2, [r3, #0]
20000136:	f38c 8810 	msr	PRIMASK, ip
2000013a:	4770      	bx	lr
2000013c:	22d0      	movs	r2, #208	; 0xd0
2000013e:	0612      	lsls	r2, r2, #24
20000140:	6812      	ldr	r2, [r2, #0]
20000142:	2001      	movs	r0, #1
20000144:	711a      	strb	r2, [r3, #4]
20000146:	e7f1      	b.n	2000012c <mutex_try_enter+0x24>
20000148:	2000      	movs	r0, #0
2000014a:	e7ef      	b.n	2000012c <mutex_try_enter+0x24>

2000014c <mutex_exit>:
2000014c:	6802      	ldr	r2, [r0, #0]
2000014e:	f3ef 8110 	mrs	r1, PRIMASK
20000152:	b672      	cpsid	i
20000154:	6813      	ldr	r3, [r2, #0]
20000156:	2b00      	cmp	r3, #0
20000158:	d0fc      	beq.n	20000154 <mutex_exit+0x8>
2000015a:	f3bf 8f5f 	dmb	sy
2000015e:	23ff      	movs	r3, #255	; 0xff
20000160:	7103      	strb	r3, [r0, #4]
20000162:	6803      	ldr	r3, [r0, #0]
20000164:	f3bf 8f5f 	dmb	sy
20000168:	2200      	movs	r2, #0
2000016a:	601a      	str	r2, [r3, #0]
2000016c:	f381 8810 	msr	PRIMASK, r1
20000170:	bf40      	sev
20000172:	4770      	bx	lr

20000174 <flash_init_boot2_copyout>:
20000174:	4808      	ldr	r0, [pc, #32]	; (20000198 <flash_init_boot2_copyout+0x24>)
20000176:	b510      	push	{r4, lr}
20000178:	7803      	ldrb	r3, [r0, #0]
2000017a:	2b00      	cmp	r3, #0
2000017c:	d10a      	bne.n	20000194 <flash_init_boot2_copyout+0x20>
2000017e:	2380      	movs	r3, #128	; 0x80
20000180:	4906      	ldr	r1, [pc, #24]	; (2000019c <flash_init_boot2_copyout+0x28>)
20000182:	4a07      	ldr	r2, [pc, #28]	; (200001a0 <flash_init_boot2_copyout+0x2c>)
20000184:	055b      	lsls	r3, r3, #21
20000186:	681c      	ldr	r4, [r3, #0]
20000188:	50cc      	str	r4, [r1, r3]
2000018a:	3304      	adds	r3, #4
2000018c:	4293      	cmp	r3, r2
2000018e:	d1fa      	bne.n	20000186 <flash_init_boot2_copyout+0x12>
20000190:	2301      	movs	r3, #1
20000192:	7003      	strb	r3, [r0, #0]
20000194:	bd10      	pop	{r4, pc}
20000196:	46c0      	nop			; (mov r8, r8)
20000198:	20000848 	.word	0x20000848
2000019c:	100006a4 	.word	0x100006a4
200001a0:	10000100 	.word	0x10000100

200001a4 <flash_enable_xip_via_boot2>:
200001a4:	b510      	push	{r4, lr}
200001a6:	4b02      	ldr	r3, [pc, #8]	; (200001b0 <flash_enable_xip_via_boot2+0xc>)
200001a8:	3301      	adds	r3, #1
200001aa:	4798      	blx	r3
200001ac:	bd10      	pop	{r4, pc}
200001ae:	46c0      	nop			; (mov r8, r8)
200001b0:	200006a4 	.word	0x200006a4

200001b4 <flash_cs_force.constprop.0>:
200001b4:	4b03      	ldr	r3, [pc, #12]	; (200001c4 <flash_cs_force.constprop.0+0x10>)
200001b6:	681a      	ldr	r2, [r3, #0]
200001b8:	23c0      	movs	r3, #192	; 0xc0
200001ba:	009b      	lsls	r3, r3, #2
200001bc:	4393      	bics	r3, r2
200001be:	4a02      	ldr	r2, [pc, #8]	; (200001c8 <flash_cs_force.constprop.0+0x14>)
200001c0:	6013      	str	r3, [r2, #0]
200001c2:	4770      	bx	lr
200001c4:	4001800c 	.word	0x4001800c
200001c8:	4001900c 	.word	0x4001900c

200001cc <flash_cs_force.constprop.1>:
200001cc:	4b05      	ldr	r3, [pc, #20]	; (200001e4 <flash_cs_force.constprop.1+0x18>)
200001ce:	681a      	ldr	r2, [r3, #0]
200001d0:	2380      	movs	r3, #128	; 0x80
200001d2:	009b      	lsls	r3, r3, #2
200001d4:	4053      	eors	r3, r2
200001d6:	22c0      	movs	r2, #192	; 0xc0
200001d8:	0092      	lsls	r2, r2, #2
200001da:	4013      	ands	r3, r2
200001dc:	4a02      	ldr	r2, [pc, #8]	; (200001e8 <flash_cs_force.constprop.1+0x1c>)
200001de:	6013      	str	r3, [r2, #0]
200001e0:	4770      	bx	lr
200001e2:	46c0      	nop			; (mov r8, r8)
200001e4:	4001800c 	.word	0x4001800c
200001e8:	4001900c 	.word	0x4001900c

200001ec <flash_do_cmd>:
200001ec:	2314      	movs	r3, #20
200001ee:	b5f0      	push	{r4, r5, r6, r7, lr}
200001f0:	46d6      	mov	lr, sl
200001f2:	464f      	mov	r7, r9
200001f4:	4646      	mov	r6, r8
200001f6:	469a      	mov	sl, r3
200001f8:	4681      	mov	r9, r0
200001fa:	8818      	ldrh	r0, [r3, #0]
200001fc:	3304      	adds	r3, #4
200001fe:	b5c0      	push	{r6, r7, lr}
20000200:	4698      	mov	r8, r3
20000202:	000e      	movs	r6, r1
20000204:	881b      	ldrh	r3, [r3, #0]
20000206:	4927      	ldr	r1, [pc, #156]	; (200002a4 <flash_do_cmd+0xb8>)
20000208:	0014      	movs	r4, r2
2000020a:	4798      	blx	r3
2000020c:	4653      	mov	r3, sl
2000020e:	0007      	movs	r7, r0
20000210:	8818      	ldrh	r0, [r3, #0]
20000212:	4643      	mov	r3, r8
20000214:	4924      	ldr	r1, [pc, #144]	; (200002a8 <flash_do_cmd+0xbc>)
20000216:	881b      	ldrh	r3, [r3, #0]
20000218:	4798      	blx	r3
2000021a:	4653      	mov	r3, sl
2000021c:	0005      	movs	r5, r0
2000021e:	8818      	ldrh	r0, [r3, #0]
20000220:	4643      	mov	r3, r8
20000222:	4922      	ldr	r1, [pc, #136]	; (200002ac <flash_do_cmd+0xc0>)
20000224:	881b      	ldrh	r3, [r3, #0]
20000226:	4798      	blx	r3
20000228:	4680      	mov	r8, r0
2000022a:	f7ff ffa3 	bl	20000174 <flash_init_boot2_copyout>
2000022e:	47b8      	blx	r7
20000230:	47a8      	blx	r5
20000232:	f7ff ffcb 	bl	200001cc <flash_cs_force.constprop.1>
20000236:	2c00      	cmp	r4, #0
20000238:	d01b      	beq.n	20000272 <flash_do_cmd+0x86>
2000023a:	21c0      	movs	r1, #192	; 0xc0
2000023c:	0022      	movs	r2, r4
2000023e:	2708      	movs	r7, #8
20000240:	2002      	movs	r0, #2
20000242:	0549      	lsls	r1, r1, #21
20000244:	003d      	movs	r5, r7
20000246:	6a8b      	ldr	r3, [r1, #40]	; 0x28
20000248:	401d      	ands	r5, r3
2000024a:	4218      	tst	r0, r3
2000024c:	d00b      	beq.n	20000266 <flash_do_cmd+0x7a>
2000024e:	2c00      	cmp	r4, #0
20000250:	d009      	beq.n	20000266 <flash_do_cmd+0x7a>
20000252:	1b13      	subs	r3, r2, r4
20000254:	2b0d      	cmp	r3, #13
20000256:	d81f      	bhi.n	20000298 <flash_do_cmd+0xac>
20000258:	464b      	mov	r3, r9
2000025a:	781b      	ldrb	r3, [r3, #0]
2000025c:	3c01      	subs	r4, #1
2000025e:	660b      	str	r3, [r1, #96]	; 0x60
20000260:	2301      	movs	r3, #1
20000262:	469c      	mov	ip, r3
20000264:	44e1      	add	r9, ip
20000266:	0023      	movs	r3, r4
20000268:	2d00      	cmp	r5, #0
2000026a:	d10c      	bne.n	20000286 <flash_do_cmd+0x9a>
2000026c:	4313      	orrs	r3, r2
2000026e:	2b00      	cmp	r3, #0
20000270:	d1e8      	bne.n	20000244 <flash_do_cmd+0x58>
20000272:	f7ff ff9f 	bl	200001b4 <flash_cs_force.constprop.0>
20000276:	47c0      	blx	r8
20000278:	f7ff ff94 	bl	200001a4 <flash_enable_xip_via_boot2>
2000027c:	bce0      	pop	{r5, r6, r7}
2000027e:	46ba      	mov	sl, r7
20000280:	46b1      	mov	r9, r6
20000282:	46a8      	mov	r8, r5
20000284:	bdf0      	pop	{r4, r5, r6, r7, pc}
20000286:	2a00      	cmp	r2, #0
20000288:	d0f1      	beq.n	2000026e <flash_do_cmd+0x82>
2000028a:	6e0b      	ldr	r3, [r1, #96]	; 0x60
2000028c:	3a01      	subs	r2, #1
2000028e:	7033      	strb	r3, [r6, #0]
20000290:	0013      	movs	r3, r2
20000292:	3601      	adds	r6, #1
20000294:	4323      	orrs	r3, r4
20000296:	e7ea      	b.n	2000026e <flash_do_cmd+0x82>
20000298:	2d00      	cmp	r5, #0
2000029a:	d0d3      	beq.n	20000244 <flash_do_cmd+0x58>
2000029c:	2a00      	cmp	r2, #0
2000029e:	d0d1      	beq.n	20000244 <flash_do_cmd+0x58>
200002a0:	e7f3      	b.n	2000028a <flash_do_cmd+0x9e>
200002a2:	46c0      	nop			; (mov r8, r8)
200002a4:	00004649 	.word	0x00004649
200002a8:	00005845 	.word	0x00005845
200002ac:	00004346 	.word	0x00004346

200002b0 <__aeabi_idiv0>:
200002b0:	4770      	bx	lr
200002b2:	46c0      	nop			; (mov r8, r8)

200002b4 <striped_spin_lock_num>:
200002b4:	0010 0000                                   ....

200002b8 <default_alarm_pool>:
200002b8:	02d0 2000 0000 0000 0370 2000 07cc 2000     ... ....p.. ... 
	...

200002d0 <default_alarm_pool_heap>:
200002d0:	07dc 2000 0000 0000 0000 0000 0010 0000     ... ............

200002e0 <irq_handler_chain_slots>:
200002e0:	00000000 	.word	0x00000000
200002e4:	00010000 	.word	0x00010000
	...
200002f0:	00020000 	.word	0x00020000
	...
200002fc:	00030000 	.word	0x00030000
	...
20000308:	00ff0000 	.word	0x00ff0000
2000030c:	00000000 	.word	0x00000000

20000310 <irq_handler_chain_first_slot>:
20000310:	b500      	push	{lr}
20000312:	6848      	ldr	r0, [r1, #4]
20000314:	3101      	adds	r1, #1
20000316:	468e      	mov	lr, r1
20000318:	4700      	bx	r0

2000031a <irq_handler_chain_remove_tail>:
2000031a:	4670      	mov	r0, lr
2000031c:	3809      	subs	r0, #9
2000031e:	4901      	ldr	r1, [pc, #4]	; (20000324 <irq_handler_chain_remove_tail+0xa>)
20000320:	4788      	blx	r1
20000322:	bd00      	pop	{pc}
20000324:	10001bcd 	.word	0x10001bcd
	...

20000330 <aeabi_bits_funcs>:
20000330:	00003350 	.word	0x00003350
20000334:	0000334c 	.word	0x0000334c
20000338:	00003354 	.word	0x00003354
2000033c:	00003352 	.word	0x00003352

20000340 <aeabi_bits_funcs_end>:
20000340:	0000534d 	.word	0x0000534d
20000344:	0000434d 	.word	0x0000434d
20000348:	00003453 	.word	0x00003453
2000034c:	00003443 	.word	0x00003443

20000350 <print_mutex>:
	...

20000358 <__mutex_array_end>:
20000358:	100020ad 	.word	0x100020ad
2000035c:	10001dc5 	.word	0x10001dc5
20000360:	10001e85 	.word	0x10001e85
20000364:	1000201d 	.word	0x1000201d

20000368 <__frame_dummy_init_array_entry>:
20000368:	100002ed 10002371                       ....q#..
